
gemm:     file format elf64-littleaarch64


Disassembly of section .init:

0000000000400778 <_init>:
  400778:	a9bf7bfd 	stp	x29, x30, [sp, #-16]!
  40077c:	910003fd 	mov	x29, sp
  400780:	9400031e 	bl	4013f8 <call_weak_fn>
  400784:	a8c17bfd 	ldp	x29, x30, [sp], #16
  400788:	d65f03c0 	ret

Disassembly of section .plt:

0000000000400790 <.plt>:
  400790:	a9bf7bf0 	stp	x16, x30, [sp, #-16]!
  400794:	f0000170 	adrp	x16, 42f000 <__FRAME_END__+0xf820>
  400798:	f947fe11 	ldr	x17, [x16, #4088]
  40079c:	913fe210 	add	x16, x16, #0xff8
  4007a0:	d61f0220 	br	x17
  4007a4:	d503201f 	nop
  4007a8:	d503201f 	nop
  4007ac:	d503201f 	nop

00000000004007b0 <puts@plt>:
  4007b0:	90000190 	adrp	x16, 430000 <puts@GLIBC_2.17>
  4007b4:	f9400211 	ldr	x17, [x16]
  4007b8:	91000210 	add	x16, x16, #0x0
  4007bc:	d61f0220 	br	x17

00000000004007c0 <aligned_alloc@plt>:
  4007c0:	90000190 	adrp	x16, 430000 <puts@GLIBC_2.17>
  4007c4:	f9400611 	ldr	x17, [x16, #8]
  4007c8:	91002210 	add	x16, x16, #0x8
  4007cc:	d61f0220 	br	x17

00000000004007d0 <strtol@plt>:
  4007d0:	90000190 	adrp	x16, 430000 <puts@GLIBC_2.17>
  4007d4:	f9400a11 	ldr	x17, [x16, #16]
  4007d8:	91004210 	add	x16, x16, #0x10
  4007dc:	d61f0220 	br	x17

00000000004007e0 <free@plt>:
  4007e0:	90000190 	adrp	x16, 430000 <puts@GLIBC_2.17>
  4007e4:	f9400e11 	ldr	x17, [x16, #24]
  4007e8:	91006210 	add	x16, x16, #0x18
  4007ec:	d61f0220 	br	x17

00000000004007f0 <rand@plt>:
  4007f0:	90000190 	adrp	x16, 430000 <puts@GLIBC_2.17>
  4007f4:	f9401211 	ldr	x17, [x16, #32]
  4007f8:	91008210 	add	x16, x16, #0x20
  4007fc:	d61f0220 	br	x17

0000000000400800 <memset@plt>:
  400800:	90000190 	adrp	x16, 430000 <puts@GLIBC_2.17>
  400804:	f9401611 	ldr	x17, [x16, #40]
  400808:	9100a210 	add	x16, x16, #0x28
  40080c:	d61f0220 	br	x17

0000000000400810 <srand@plt>:
  400810:	90000190 	adrp	x16, 430000 <puts@GLIBC_2.17>
  400814:	f9401a11 	ldr	x17, [x16, #48]
  400818:	9100c210 	add	x16, x16, #0x30
  40081c:	d61f0220 	br	x17

0000000000400820 <__libc_start_main@plt>:
  400820:	90000190 	adrp	x16, 430000 <puts@GLIBC_2.17>
  400824:	f9401e11 	ldr	x17, [x16, #56]
  400828:	9100e210 	add	x16, x16, #0x38
  40082c:	d61f0220 	br	x17

0000000000400830 <clock_gettime@plt>:
  400830:	90000190 	adrp	x16, 430000 <puts@GLIBC_2.17>
  400834:	f9402211 	ldr	x17, [x16, #64]
  400838:	91010210 	add	x16, x16, #0x40
  40083c:	d61f0220 	br	x17

0000000000400840 <time@plt>:
  400840:	90000190 	adrp	x16, 430000 <puts@GLIBC_2.17>
  400844:	f9402611 	ldr	x17, [x16, #72]
  400848:	91012210 	add	x16, x16, #0x48
  40084c:	d61f0220 	br	x17

0000000000400850 <abort@plt>:
  400850:	90000190 	adrp	x16, 430000 <puts@GLIBC_2.17>
  400854:	f9402a11 	ldr	x17, [x16, #80]
  400858:	91014210 	add	x16, x16, #0x50
  40085c:	d61f0220 	br	x17

0000000000400860 <__gmon_start__@plt>:
  400860:	90000190 	adrp	x16, 430000 <puts@GLIBC_2.17>
  400864:	f9402e11 	ldr	x17, [x16, #88]
  400868:	91016210 	add	x16, x16, #0x58
  40086c:	d61f0220 	br	x17

0000000000400870 <printf@plt>:
  400870:	90000190 	adrp	x16, 430000 <puts@GLIBC_2.17>
  400874:	f9403211 	ldr	x17, [x16, #96]
  400878:	91018210 	add	x16, x16, #0x60
  40087c:	d61f0220 	br	x17

Disassembly of section .text:

0000000000400880 <main>:
  400880:	d10583ff 	sub	sp, sp, #0x160
  400884:	a9047bfd 	stp	x29, x30, [sp, #64]
  400888:	910103fd 	add	x29, sp, #0x40
  40088c:	a9065bf5 	stp	x21, x22, [sp, #96]
  400890:	aa0103f5 	mov	x21, x1
  400894:	7100281f 	cmp	w0, #0xa
  400898:	54000140 	b.eq	4008c0 <main+0x40>  // b.none
  40089c:	f9400021 	ldr	x1, [x1]
  4008a0:	d00000fe 	adrp	x30, 41e000 <_Z21register_block_vv_3x4ILi3ELi16EEviPKfS1_Pfi+0xe0>
  4008a4:	910b43c0 	add	x0, x30, #0x2d0
  4008a8:	97fffff2 	bl	400870 <printf@plt>
  4008ac:	52800000 	mov	w0, #0x0                   	// #0
  4008b0:	a9447bfd 	ldp	x29, x30, [sp, #64]
  4008b4:	a9465bf5 	ldp	x21, x22, [sp, #96]
  4008b8:	910583ff 	add	sp, sp, #0x160
  4008bc:	d65f03c0 	ret
  4008c0:	2a0003e2 	mov	w2, w0
  4008c4:	a90553f3 	stp	x19, x20, [sp, #80]
  4008c8:	2a0003f4 	mov	w20, w0
  4008cc:	f94006a0 	ldr	x0, [x21, #8]
  4008d0:	d2800001 	mov	x1, #0x0                   	// #0
  4008d4:	a90763f7 	stp	x23, x24, [sp, #112]
  4008d8:	a9086bf9 	stp	x25, x26, [sp, #128]
  4008dc:	a90973fb 	stp	x27, x28, [sp, #144]
  4008e0:	97ffffbc 	bl	4007d0 <strtol@plt>
  4008e4:	aa0003e1 	mov	x1, x0
  4008e8:	2a0003f7 	mov	w23, w0
  4008ec:	2a1403e2 	mov	w2, w20
  4008f0:	f9400aa0 	ldr	x0, [x21, #16]
  4008f4:	f9009fe1 	str	x1, [sp, #312]
  4008f8:	d2800001 	mov	x1, #0x0                   	// #0
  4008fc:	97ffffb5 	bl	4007d0 <strtol@plt>
  400900:	aa0003e3 	mov	x3, x0
  400904:	2a0003f9 	mov	w25, w0
  400908:	2a1403e2 	mov	w2, w20
  40090c:	f9400ea0 	ldr	x0, [x21, #24]
  400910:	d2800001 	mov	x1, #0x0                   	// #0
  400914:	f9009be3 	str	x3, [sp, #304]
  400918:	97ffffae 	bl	4007d0 <strtol@plt>
  40091c:	aa0003e4 	mov	x4, x0
  400920:	2a0003f3 	mov	w19, w0
  400924:	2a1403e2 	mov	w2, w20
  400928:	f94012a0 	ldr	x0, [x21, #32]
  40092c:	d2800001 	mov	x1, #0x0                   	// #0
  400930:	f9007be4 	str	x4, [sp, #240]
  400934:	97ffffa7 	bl	4007d0 <strtol@plt>
  400938:	aa0003fb 	mov	x27, x0
  40093c:	f94016a0 	ldr	x0, [x21, #40]
  400940:	2a1403e2 	mov	w2, w20
  400944:	d2800001 	mov	x1, #0x0                   	// #0
  400948:	97ffffa2 	bl	4007d0 <strtol@plt>
  40094c:	aa0003fa 	mov	x26, x0
  400950:	f9401aa0 	ldr	x0, [x21, #48]
  400954:	2a1403e2 	mov	w2, w20
  400958:	d2800001 	mov	x1, #0x0                   	// #0
  40095c:	97ffff9d 	bl	4007d0 <strtol@plt>
  400960:	aa0003e5 	mov	x5, x0
  400964:	f9401ea0 	ldr	x0, [x21, #56]
  400968:	2a1403e2 	mov	w2, w20
  40096c:	d2800001 	mov	x1, #0x0                   	// #0
  400970:	b900efe5 	str	w5, [sp, #236]
  400974:	97ffff97 	bl	4007d0 <strtol@plt>
  400978:	aa0003f8 	mov	x24, x0
  40097c:	f94022a0 	ldr	x0, [x21, #64]
  400980:	2a1403e2 	mov	w2, w20
  400984:	d2800001 	mov	x1, #0x0                   	// #0
  400988:	b900ebf8 	str	w24, [sp, #232]
  40098c:	97ffff91 	bl	4007d0 <strtol@plt>
  400990:	aa0003e6 	mov	x6, x0
  400994:	f94026a0 	ldr	x0, [x21, #72]
  400998:	2a1403e2 	mov	w2, w20
  40099c:	aa0603f6 	mov	x22, x6
  4009a0:	2a0603fc 	mov	w28, w6
  4009a4:	d2800001 	mov	x1, #0x0                   	// #0
  4009a8:	97ffff8a 	bl	4007d0 <strtol@plt>
  4009ac:	710042df 	cmp	w22, #0x10
  4009b0:	51001302 	sub	w2, w24, #0x4
  4009b4:	1a9f17e0 	cset	w0, eq  // eq = none
  4009b8:	7100001f 	cmp	w0, #0x0
  4009bc:	7a411842 	ccmp	w2, #0x1, #0x2, ne  // ne = any
  4009c0:	540000c9 	b.ls	4009d8 <main+0x158>  // b.plast
  4009c4:	7100131f 	cmp	w24, #0x4
  4009c8:	1a9f17e7 	cset	w7, eq  // eq = none
  4009cc:	710000ff 	cmp	w7, #0x0
  4009d0:	7a541ac0 	ccmp	w22, #0x14, #0x0, ne  // ne = any
  4009d4:	54004d01 	b.ne	401374 <main+0xaf4>  // b.any
  4009d8:	f9407bf5 	ldr	x21, [sp, #240]
  4009dc:	d2800800 	mov	x0, #0x40                  	// #64
  4009e0:	f9409ff8 	ldr	x24, [sp, #312]
  4009e4:	6d0a27e8 	stp	d8, d9, [sp, #160]
  4009e8:	6d0b2fea 	stp	d10, d11, [sp, #176]
  4009ec:	1b157f0b 	mul	w11, w24, w21
  4009f0:	6d0c37ec 	stp	d12, d13, [sp, #192]
  4009f4:	937e7d76 	sbfiz	x22, x11, #2, #32
  4009f8:	fd006bee 	str	d14, [sp, #208]
  4009fc:	aa1603e1 	mov	x1, x22
  400a00:	b900fbeb 	str	w11, [sp, #248]
  400a04:	97ffff6f 	bl	4007c0 <aligned_alloc@plt>
  400a08:	aa0003f4 	mov	x20, x0
  400a0c:	2a1503ec 	mov	w12, w21
  400a10:	d2800800 	mov	x0, #0x40                  	// #64
  400a14:	f9409bf5 	ldr	x21, [sp, #304]
  400a18:	1b0c7eae 	mul	w14, w21, w12
  400a1c:	b90103ee 	str	w14, [sp, #256]
  400a20:	937e7dc1 	sbfiz	x1, x14, #2, #32
  400a24:	f90087e1 	str	x1, [sp, #264]
  400a28:	97ffff66 	bl	4007c0 <aligned_alloc@plt>
  400a2c:	1b157f0f 	mul	w15, w24, w21
  400a30:	aa0003f5 	mov	x21, x0
  400a34:	d2800800 	mov	x0, #0x40                  	// #64
  400a38:	937e7df8 	sbfiz	x24, x15, #2, #32
  400a3c:	aa1803e1 	mov	x1, x24
  400a40:	97ffff60 	bl	4007c0 <aligned_alloc@plt>
  400a44:	aa1803e1 	mov	x1, x24
  400a48:	f90097e0 	str	x0, [sp, #296]
  400a4c:	d2800800 	mov	x0, #0x40                  	// #64
  400a50:	97ffff5c 	bl	4007c0 <aligned_alloc@plt>
  400a54:	aa0003f8 	mov	x24, x0
  400a58:	d2800000 	mov	x0, #0x0                   	// #0
  400a5c:	97ffff79 	bl	400840 <time@plt>
  400a60:	97ffff6c 	bl	400810 <srand@plt>
  400a64:	b940fbf2 	ldr	w18, [sp, #248]
  400a68:	7100025f 	cmp	w18, #0x0
  400a6c:	54000b8d 	b.le	400bdc <main+0x35c>
  400a70:	d10012d0 	sub	x16, x22, #0x4
  400a74:	8b1402d1 	add	x17, x22, x20
  400a78:	f9007ff1 	str	x17, [sp, #248]
  400a7c:	0f016608 	movi	v8.2s, #0x30, lsl #24
  400a80:	d342fe1e 	lsr	x30, x16, #2
  400a84:	aa1403f6 	mov	x22, x20
  400a88:	910007c1 	add	x1, x30, #0x1
  400a8c:	f2400823 	ands	x3, x1, #0x7
  400a90:	54000580 	b.eq	400b40 <main+0x2c0>  // b.none
  400a94:	f100047f 	cmp	x3, #0x1
  400a98:	54000460 	b.eq	400b24 <main+0x2a4>  // b.none
  400a9c:	f100087f 	cmp	x3, #0x2
  400aa0:	540003a0 	b.eq	400b14 <main+0x294>  // b.none
  400aa4:	f1000c7f 	cmp	x3, #0x3
  400aa8:	540002e0 	b.eq	400b04 <main+0x284>  // b.none
  400aac:	f100107f 	cmp	x3, #0x4
  400ab0:	54000220 	b.eq	400af4 <main+0x274>  // b.none
  400ab4:	f100147f 	cmp	x3, #0x5
  400ab8:	54000160 	b.eq	400ae4 <main+0x264>  // b.none
  400abc:	f100187f 	cmp	x3, #0x6
  400ac0:	540000a0 	b.eq	400ad4 <main+0x254>  // b.none
  400ac4:	97ffff4b 	bl	4007f0 <rand@plt>
  400ac8:	1e220000 	scvtf	s0, w0
  400acc:	1e280801 	fmul	s1, s0, s8
  400ad0:	bc0046c1 	str	s1, [x22], #4
  400ad4:	97ffff47 	bl	4007f0 <rand@plt>
  400ad8:	1e220002 	scvtf	s2, w0
  400adc:	1e280843 	fmul	s3, s2, s8
  400ae0:	bc0046c3 	str	s3, [x22], #4
  400ae4:	97ffff43 	bl	4007f0 <rand@plt>
  400ae8:	1e220004 	scvtf	s4, w0
  400aec:	1e280885 	fmul	s5, s4, s8
  400af0:	bc0046c5 	str	s5, [x22], #4
  400af4:	97ffff3f 	bl	4007f0 <rand@plt>
  400af8:	1e220006 	scvtf	s6, w0
  400afc:	1e2808c7 	fmul	s7, s6, s8
  400b00:	bc0046c7 	str	s7, [x22], #4
  400b04:	97ffff3b 	bl	4007f0 <rand@plt>
  400b08:	1e220009 	scvtf	s9, w0
  400b0c:	1e28092a 	fmul	s10, s9, s8
  400b10:	bc0046ca 	str	s10, [x22], #4
  400b14:	97ffff37 	bl	4007f0 <rand@plt>
  400b18:	1e22000b 	scvtf	s11, w0
  400b1c:	1e28096c 	fmul	s12, s11, s8
  400b20:	bc0046cc 	str	s12, [x22], #4
  400b24:	97ffff33 	bl	4007f0 <rand@plt>
  400b28:	1e22000d 	scvtf	s13, w0
  400b2c:	f9407fe4 	ldr	x4, [sp, #248]
  400b30:	1e2809ae 	fmul	s14, s13, s8
  400b34:	bc0046ce 	str	s14, [x22], #4
  400b38:	eb16009f 	cmp	x4, x22
  400b3c:	54000500 	b.eq	400bdc <main+0x35c>  // b.none
  400b40:	b90113f3 	str	w19, [sp, #272]
  400b44:	97ffff2b 	bl	4007f0 <rand@plt>
  400b48:	1e220010 	scvtf	s16, w0
  400b4c:	aa1603f3 	mov	x19, x22
  400b50:	910082d6 	add	x22, x22, #0x20
  400b54:	1e280a11 	fmul	s17, s16, s8
  400b58:	bc004671 	str	s17, [x19], #4
  400b5c:	97ffff25 	bl	4007f0 <rand@plt>
  400b60:	1e220012 	scvtf	s18, w0
  400b64:	1e280a53 	fmul	s19, s18, s8
  400b68:	bc1e42d3 	stur	s19, [x22, #-28]
  400b6c:	97ffff21 	bl	4007f0 <rand@plt>
  400b70:	1e220014 	scvtf	s20, w0
  400b74:	1e280a95 	fmul	s21, s20, s8
  400b78:	bd000675 	str	s21, [x19, #4]
  400b7c:	97ffff1d 	bl	4007f0 <rand@plt>
  400b80:	1e220016 	scvtf	s22, w0
  400b84:	1e280ad7 	fmul	s23, s22, s8
  400b88:	bc1ec2d7 	stur	s23, [x22, #-20]
  400b8c:	97ffff19 	bl	4007f0 <rand@plt>
  400b90:	1e220018 	scvtf	s24, w0
  400b94:	1e280b19 	fmul	s25, s24, s8
  400b98:	bc1f02d9 	stur	s25, [x22, #-16]
  400b9c:	97ffff15 	bl	4007f0 <rand@plt>
  400ba0:	1e22001a 	scvtf	s26, w0
  400ba4:	1e280b5b 	fmul	s27, s26, s8
  400ba8:	bc1f42db 	stur	s27, [x22, #-12]
  400bac:	97ffff11 	bl	4007f0 <rand@plt>
  400bb0:	1e22001c 	scvtf	s28, w0
  400bb4:	1e280b9d 	fmul	s29, s28, s8
  400bb8:	bc1f82dd 	stur	s29, [x22, #-8]
  400bbc:	97ffff0d 	bl	4007f0 <rand@plt>
  400bc0:	1e22001e 	scvtf	s30, w0
  400bc4:	f9407fe5 	ldr	x5, [sp, #248]
  400bc8:	1e280bdf 	fmul	s31, s30, s8
  400bcc:	bc1fc2df 	stur	s31, [x22, #-4]
  400bd0:	eb1600bf 	cmp	x5, x22
  400bd4:	54fffb81 	b.ne	400b44 <main+0x2c4>  // b.any
  400bd8:	b94113f3 	ldr	w19, [sp, #272]
  400bdc:	b94103e6 	ldr	w6, [sp, #256]
  400be0:	710000df 	cmp	w6, #0x0
  400be4:	54000bad 	b.le	400d58 <main+0x4d8>
  400be8:	f94087e2 	ldr	x2, [sp, #264]
  400bec:	0f016608 	movi	v8.2s, #0x30, lsl #24
  400bf0:	aa1503f6 	mov	x22, x21
  400bf4:	d1001040 	sub	x0, x2, #0x4
  400bf8:	8b150047 	add	x7, x2, x21
  400bfc:	f9007fe7 	str	x7, [sp, #248]
  400c00:	d342fc08 	lsr	x8, x0, #2
  400c04:	91000509 	add	x9, x8, #0x1
  400c08:	f240092a 	ands	x10, x9, #0x7
  400c0c:	54000580 	b.eq	400cbc <main+0x43c>  // b.none
  400c10:	f100055f 	cmp	x10, #0x1
  400c14:	54000460 	b.eq	400ca0 <main+0x420>  // b.none
  400c18:	f100095f 	cmp	x10, #0x2
  400c1c:	540003a0 	b.eq	400c90 <main+0x410>  // b.none
  400c20:	f1000d5f 	cmp	x10, #0x3
  400c24:	540002e0 	b.eq	400c80 <main+0x400>  // b.none
  400c28:	f100115f 	cmp	x10, #0x4
  400c2c:	54000220 	b.eq	400c70 <main+0x3f0>  // b.none
  400c30:	f100155f 	cmp	x10, #0x5
  400c34:	54000160 	b.eq	400c60 <main+0x3e0>  // b.none
  400c38:	f100195f 	cmp	x10, #0x6
  400c3c:	540000a0 	b.eq	400c50 <main+0x3d0>  // b.none
  400c40:	97fffeec 	bl	4007f0 <rand@plt>
  400c44:	1e220000 	scvtf	s0, w0
  400c48:	1e280801 	fmul	s1, s0, s8
  400c4c:	bc0046c1 	str	s1, [x22], #4
  400c50:	97fffee8 	bl	4007f0 <rand@plt>
  400c54:	1e220002 	scvtf	s2, w0
  400c58:	1e280843 	fmul	s3, s2, s8
  400c5c:	bc0046c3 	str	s3, [x22], #4
  400c60:	97fffee4 	bl	4007f0 <rand@plt>
  400c64:	1e220004 	scvtf	s4, w0
  400c68:	1e280885 	fmul	s5, s4, s8
  400c6c:	bc0046c5 	str	s5, [x22], #4
  400c70:	97fffee0 	bl	4007f0 <rand@plt>
  400c74:	1e220006 	scvtf	s6, w0
  400c78:	1e2808c7 	fmul	s7, s6, s8
  400c7c:	bc0046c7 	str	s7, [x22], #4
  400c80:	97fffedc 	bl	4007f0 <rand@plt>
  400c84:	1e220009 	scvtf	s9, w0
  400c88:	1e28092a 	fmul	s10, s9, s8
  400c8c:	bc0046ca 	str	s10, [x22], #4
  400c90:	97fffed8 	bl	4007f0 <rand@plt>
  400c94:	1e22000b 	scvtf	s11, w0
  400c98:	1e28096c 	fmul	s12, s11, s8
  400c9c:	bc0046cc 	str	s12, [x22], #4
  400ca0:	97fffed4 	bl	4007f0 <rand@plt>
  400ca4:	1e22000d 	scvtf	s13, w0
  400ca8:	f9407feb 	ldr	x11, [sp, #248]
  400cac:	1e2809ae 	fmul	s14, s13, s8
  400cb0:	bc0046ce 	str	s14, [x22], #4
  400cb4:	eb0b02df 	cmp	x22, x11
  400cb8:	54000500 	b.eq	400d58 <main+0x4d8>  // b.none
  400cbc:	b90103f3 	str	w19, [sp, #256]
  400cc0:	97fffecc 	bl	4007f0 <rand@plt>
  400cc4:	1e220010 	scvtf	s16, w0
  400cc8:	aa1603f3 	mov	x19, x22
  400ccc:	910082d6 	add	x22, x22, #0x20
  400cd0:	1e280a11 	fmul	s17, s16, s8
  400cd4:	bc004671 	str	s17, [x19], #4
  400cd8:	97fffec6 	bl	4007f0 <rand@plt>
  400cdc:	1e220012 	scvtf	s18, w0
  400ce0:	1e280a53 	fmul	s19, s18, s8
  400ce4:	bc1e42d3 	stur	s19, [x22, #-28]
  400ce8:	97fffec2 	bl	4007f0 <rand@plt>
  400cec:	1e220014 	scvtf	s20, w0
  400cf0:	1e280a95 	fmul	s21, s20, s8
  400cf4:	bd000675 	str	s21, [x19, #4]
  400cf8:	97fffebe 	bl	4007f0 <rand@plt>
  400cfc:	1e220016 	scvtf	s22, w0
  400d00:	1e280ad7 	fmul	s23, s22, s8
  400d04:	bc1ec2d7 	stur	s23, [x22, #-20]
  400d08:	97fffeba 	bl	4007f0 <rand@plt>
  400d0c:	1e220018 	scvtf	s24, w0
  400d10:	1e280b19 	fmul	s25, s24, s8
  400d14:	bc1f02d9 	stur	s25, [x22, #-16]
  400d18:	97fffeb6 	bl	4007f0 <rand@plt>
  400d1c:	1e22001a 	scvtf	s26, w0
  400d20:	1e280b5b 	fmul	s27, s26, s8
  400d24:	bc1f42db 	stur	s27, [x22, #-12]
  400d28:	97fffeb2 	bl	4007f0 <rand@plt>
  400d2c:	1e22001c 	scvtf	s28, w0
  400d30:	1e280b9d 	fmul	s29, s28, s8
  400d34:	bc1f82dd 	stur	s29, [x22, #-8]
  400d38:	97fffeae 	bl	4007f0 <rand@plt>
  400d3c:	1e22001e 	scvtf	s30, w0
  400d40:	f9407fec 	ldr	x12, [sp, #248]
  400d44:	1e280bdf 	fmul	s31, s30, s8
  400d48:	bc1fc2df 	stur	s31, [x22, #-4]
  400d4c:	eb0c02df 	cmp	x22, x12
  400d50:	54fffb81 	b.ne	400cc0 <main+0x440>  // b.any
  400d54:	b94103f3 	ldr	w19, [sp, #256]
  400d58:	f9007ff8 	str	x24, [sp, #248]
  400d5c:	2a1703f8 	mov	w24, w23
  400d60:	f94097f7 	ldr	x23, [sp, #296]
  400d64:	52800156 	mov	w22, #0xa                   	// #10
  400d68:	b90003f9 	str	w25, [sp]
  400d6c:	aa1703e7 	mov	x7, x23
  400d70:	2a1903e6 	mov	w6, w25
  400d74:	aa1503e5 	mov	x5, x21
  400d78:	2a1303e4 	mov	w4, w19
  400d7c:	aa1403e3 	mov	x3, x20
  400d80:	2a1303e2 	mov	w2, w19
  400d84:	2a1903e1 	mov	w1, w25
  400d88:	2a1803e0 	mov	w0, w24
  400d8c:	940001cd 	bl	4014c0 <_Z5naiveiiiPfiS_iS_i>
  400d90:	710006d6 	subs	w22, w22, #0x1
  400d94:	54fffea1 	b.ne	400d68 <main+0x4e8>  // b.any
  400d98:	9000018d 	adrp	x13, 430000 <puts@GLIBC_2.17>
  400d9c:	9000018e 	adrp	x14, 430000 <puts@GLIBC_2.17>
  400da0:	2a1803f7 	mov	w23, w24
  400da4:	910503e1 	add	x1, sp, #0x140
  400da8:	f9407ff8 	ldr	x24, [sp, #248]
  400dac:	f90045bf 	str	xzr, [x13, #136]
  400db0:	f90041df 	str	xzr, [x14, #128]
  400db4:	52800020 	mov	w0, #0x1                   	// #1
  400db8:	97fffe9e 	bl	400830 <clock_gettime@plt>
  400dbc:	b90003f9 	str	w25, [sp]
  400dc0:	f94097e7 	ldr	x7, [sp, #296]
  400dc4:	52800636 	mov	w22, #0x31                  	// #49
  400dc8:	2a1903e6 	mov	w6, w25
  400dcc:	aa1503e5 	mov	x5, x21
  400dd0:	2a1303e4 	mov	w4, w19
  400dd4:	aa1403e3 	mov	x3, x20
  400dd8:	2a1303e2 	mov	w2, w19
  400ddc:	2a1903e1 	mov	w1, w25
  400de0:	2a1703e0 	mov	w0, w23
  400de4:	940001b7 	bl	4014c0 <_Z5naiveiiiPfiS_iS_i>
  400de8:	f9007ff8 	str	x24, [sp, #248]
  400dec:	2a1603f8 	mov	w24, w22
  400df0:	f94097f6 	ldr	x22, [sp, #296]
  400df4:	b90003f9 	str	w25, [sp]
  400df8:	aa1603e7 	mov	x7, x22
  400dfc:	2a1903e6 	mov	w6, w25
  400e00:	aa1503e5 	mov	x5, x21
  400e04:	2a1303e4 	mov	w4, w19
  400e08:	aa1403e3 	mov	x3, x20
  400e0c:	2a1303e2 	mov	w2, w19
  400e10:	2a1903e1 	mov	w1, w25
  400e14:	2a1703e0 	mov	w0, w23
  400e18:	940001aa 	bl	4014c0 <_Z5naiveiiiPfiS_iS_i>
  400e1c:	b90003f9 	str	w25, [sp]
  400e20:	aa1603e7 	mov	x7, x22
  400e24:	2a1903e6 	mov	w6, w25
  400e28:	aa1503e5 	mov	x5, x21
  400e2c:	2a1303e4 	mov	w4, w19
  400e30:	aa1403e3 	mov	x3, x20
  400e34:	2a1303e2 	mov	w2, w19
  400e38:	2a1903e1 	mov	w1, w25
  400e3c:	2a1703e0 	mov	w0, w23
  400e40:	940001a0 	bl	4014c0 <_Z5naiveiiiPfiS_iS_i>
  400e44:	b90003f9 	str	w25, [sp]
  400e48:	aa1603e7 	mov	x7, x22
  400e4c:	2a1903e6 	mov	w6, w25
  400e50:	aa1503e5 	mov	x5, x21
  400e54:	2a1303e4 	mov	w4, w19
  400e58:	aa1403e3 	mov	x3, x20
  400e5c:	2a1303e2 	mov	w2, w19
  400e60:	2a1903e1 	mov	w1, w25
  400e64:	2a1703e0 	mov	w0, w23
  400e68:	94000196 	bl	4014c0 <_Z5naiveiiiPfiS_iS_i>
  400e6c:	b90003f9 	str	w25, [sp]
  400e70:	aa1603e7 	mov	x7, x22
  400e74:	2a1903e6 	mov	w6, w25
  400e78:	aa1503e5 	mov	x5, x21
  400e7c:	2a1303e4 	mov	w4, w19
  400e80:	aa1403e3 	mov	x3, x20
  400e84:	2a1303e2 	mov	w2, w19
  400e88:	2a1903e1 	mov	w1, w25
  400e8c:	2a1703e0 	mov	w0, w23
  400e90:	9400018c 	bl	4014c0 <_Z5naiveiiiPfiS_iS_i>
  400e94:	b90003f9 	str	w25, [sp]
  400e98:	aa1603e7 	mov	x7, x22
  400e9c:	2a1903e6 	mov	w6, w25
  400ea0:	aa1503e5 	mov	x5, x21
  400ea4:	2a1303e4 	mov	w4, w19
  400ea8:	aa1403e3 	mov	x3, x20
  400eac:	2a1303e2 	mov	w2, w19
  400eb0:	2a1903e1 	mov	w1, w25
  400eb4:	2a1703e0 	mov	w0, w23
  400eb8:	94000182 	bl	4014c0 <_Z5naiveiiiPfiS_iS_i>
  400ebc:	b90003f9 	str	w25, [sp]
  400ec0:	aa1603e7 	mov	x7, x22
  400ec4:	2a1903e6 	mov	w6, w25
  400ec8:	aa1503e5 	mov	x5, x21
  400ecc:	2a1303e4 	mov	w4, w19
  400ed0:	aa1403e3 	mov	x3, x20
  400ed4:	2a1303e2 	mov	w2, w19
  400ed8:	2a1903e1 	mov	w1, w25
  400edc:	2a1703e0 	mov	w0, w23
  400ee0:	94000178 	bl	4014c0 <_Z5naiveiiiPfiS_iS_i>
  400ee4:	b90003f9 	str	w25, [sp]
  400ee8:	aa1603e7 	mov	x7, x22
  400eec:	2a1903e6 	mov	w6, w25
  400ef0:	aa1503e5 	mov	x5, x21
  400ef4:	2a1303e4 	mov	w4, w19
  400ef8:	aa1403e3 	mov	x3, x20
  400efc:	2a1303e2 	mov	w2, w19
  400f00:	2a1903e1 	mov	w1, w25
  400f04:	2a1703e0 	mov	w0, w23
  400f08:	9400016e 	bl	4014c0 <_Z5naiveiiiPfiS_iS_i>
  400f0c:	71001f18 	subs	w24, w24, #0x7
  400f10:	54fff721 	b.ne	400df4 <main+0x574>  // b.any
  400f14:	f9407ff8 	ldr	x24, [sp, #248]
  400f18:	910543e1 	add	x1, sp, #0x150
  400f1c:	52800020 	mov	w0, #0x1                   	// #1
  400f20:	97fffe44 	bl	400830 <clock_gettime@plt>
  400f24:	a95413e3 	ldp	x3, x4, [sp, #320]
  400f28:	d00000ef 	adrp	x15, 41e000 <_Z21register_block_vv_3x4ILi3ELi16EEviPKfS1_Pfi+0xe0>
  400f2c:	a95507e5 	ldp	x5, x1, [sp, #336]
  400f30:	d2e80932 	mov	x18, #0x4049000000000000    	// #4632233691727265792
  400f34:	fd41e9ed 	ldr	d13, [x15, #976]
  400f38:	9e670240 	fmov	d0, x18
  400f3c:	b9413bed 	ldr	w13, [sp, #312]
  400f40:	d2d9aca0 	mov	x0, #0xcd6500000000        	// #225833675390976
  400f44:	b94133ee 	ldr	w14, [sp, #304]
  400f48:	f2e839a0 	movk	x0, #0x41cd, lsl #48
  400f4c:	b940f3ec 	ldr	w12, [sp, #240]
  400f50:	9e67000b 	fmov	d11, x0
  400f54:	cb040022 	sub	x2, x1, x4
  400f58:	cb0300a6 	sub	x6, x5, x3
  400f5c:	1e6201a5 	scvtf	d5, w13
  400f60:	d00000e7 	adrp	x7, 41e000 <_Z21register_block_vv_3x4ILi3ELi16EEviPKfS1_Pfi+0xe0>
  400f64:	9e620043 	scvtf	d3, x2
  400f68:	9e6200c1 	scvtf	d1, x6
  400f6c:	1e620186 	scvtf	d6, w12
  400f70:	fd41ecec 	ldr	d12, [x7, #984]
  400f74:	d2c80009 	mov	x9, #0x400000000000        	// #70368744177664
  400f78:	d2e80b28 	mov	x8, #0x4059000000000000    	// #4636737291354636288
  400f7c:	1e6528a9 	fadd	d9, d5, d5
  400f80:	f2e811e9 	movk	x9, #0x408f, lsl #48
  400f84:	1f4d0464 	fmadd	d4, d3, d13, d1
  400f88:	1e6201c3 	scvtf	d3, w14
  400f8c:	9e670102 	fmov	d2, x8
  400f90:	9e670128 	fmov	d8, x9
  400f94:	d00000ea 	adrp	x10, 41e000 <_Z21register_block_vv_3x4ILi3ELi16EEviPKfS1_Pfi+0xe0>
  400f98:	d00000eb 	adrp	x11, 41e000 <_Z21register_block_vv_3x4ILi3ELi16EEviPKfS1_Pfi+0xe0>
  400f9c:	910d6140 	add	x0, x10, #0x358
  400fa0:	910d4161 	add	x1, x11, #0x350
  400fa4:	1e63092a 	fmul	d10, d9, d3
  400fa8:	f90087e0 	str	x0, [sp, #264]
  400fac:	52800016 	mov	w22, #0x0                   	// #0
  400fb0:	1e601887 	fdiv	d7, d4, d0
  400fb4:	1e66094a 	fmul	d10, d10, d6
  400fb8:	1e6b08ee 	fmul	d14, d7, d11
  400fbc:	1e6808e1 	fmul	d1, d7, d8
  400fc0:	1e6e1940 	fdiv	d0, d10, d14
  400fc4:	1e6c1810 	fdiv	d16, d0, d12
  400fc8:	1e620a02 	fmul	d2, d16, d2
  400fcc:	97fffe29 	bl	400870 <printf@plt>
  400fd0:	2a1703e9 	mov	w9, w23
  400fd4:	d2d80000 	mov	x0, #0xc00000000000        	// #211106232532992
  400fd8:	2a1903f7 	mov	w23, w25
  400fdc:	2a0903f9 	mov	w25, w9
  400fe0:	9000018f 	adrp	x15, 430000 <puts@GLIBC_2.17>
  400fe4:	90000192 	adrp	x18, 430000 <puts@GLIBC_2.17>
  400fe8:	910221e3 	add	x3, x15, #0x88
  400fec:	91020244 	add	x4, x18, #0x80
  400ff0:	d00000e5 	adrp	x5, 41e000 <_Z21register_block_vv_3x4ILi3ELi16EEviPKfS1_Pfi+0xe0>
  400ff4:	d00000e6 	adrp	x6, 41e000 <_Z21register_block_vv_3x4ILi3ELi16EEviPKfS1_Pfi+0xe0>
  400ff8:	910e20a1 	add	x1, x5, #0x388
  400ffc:	910e40c2 	add	x2, x6, #0x390
  401000:	b00000e7 	adrp	x7, 41e000 <_Z21register_block_vv_3x4ILi3ELi16EEviPKfS1_Pfi+0xe0>
  401004:	f2e80e40 	movk	x0, #0x4072, lsl #48
  401008:	910ec0e8 	add	x8, x7, #0x3b0
  40100c:	9e670009 	fmov	d9, x0
  401010:	a90f8fe4 	stp	x4, x3, [sp, #248]
  401014:	a9110be1 	stp	x1, x2, [sp, #272]
  401018:	f90093e8 	str	x8, [sp, #288]
  40101c:	d503201f 	nop
  401020:	5280014a 	mov	w10, #0xa                   	// #10
  401024:	295d1be7 	ldp	w7, w6, [sp, #232]
  401028:	b90003fc 	str	w28, [sp]
  40102c:	f90007f4 	str	x20, [sp, #8]
  401030:	2a1a03e5 	mov	w5, w26
  401034:	b90013f3 	str	w19, [sp, #16]
  401038:	2a1b03e4 	mov	w4, w27
  40103c:	f9000ff5 	str	x21, [sp, #24]
  401040:	2a1303e3 	mov	w3, w19
  401044:	b90023f7 	str	w23, [sp, #32]
  401048:	2a1703e2 	mov	w2, w23
  40104c:	f90017f8 	str	x24, [sp, #40]
  401050:	2a1903e1 	mov	w1, w25
  401054:	b90033f7 	str	w23, [sp, #48]
  401058:	2a1603e0 	mov	w0, w22
  40105c:	b900f3ea 	str	w10, [sp, #240]
  401060:	94000374 	bl	401e30 <_Z5cacheiiiiiiiiiPfiS_iS_i>
  401064:	b90003fc 	str	w28, [sp]
  401068:	295d1be7 	ldp	w7, w6, [sp, #232]
  40106c:	f90007f4 	str	x20, [sp, #8]
  401070:	b90013f3 	str	w19, [sp, #16]
  401074:	2a1a03e5 	mov	w5, w26
  401078:	f9000ff5 	str	x21, [sp, #24]
  40107c:	2a1b03e4 	mov	w4, w27
  401080:	b90023f7 	str	w23, [sp, #32]
  401084:	2a1303e3 	mov	w3, w19
  401088:	f90017f8 	str	x24, [sp, #40]
  40108c:	2a1703e2 	mov	w2, w23
  401090:	b90033f7 	str	w23, [sp, #48]
  401094:	2a1903e1 	mov	w1, w25
  401098:	2a1603e0 	mov	w0, w22
  40109c:	94000365 	bl	401e30 <_Z5cacheiiiiiiiiiPfiS_iS_i>
  4010a0:	b90003fc 	str	w28, [sp]
  4010a4:	295d1be7 	ldp	w7, w6, [sp, #232]
  4010a8:	f90007f4 	str	x20, [sp, #8]
  4010ac:	b90013f3 	str	w19, [sp, #16]
  4010b0:	2a1a03e5 	mov	w5, w26
  4010b4:	f9000ff5 	str	x21, [sp, #24]
  4010b8:	2a1b03e4 	mov	w4, w27
  4010bc:	b90023f7 	str	w23, [sp, #32]
  4010c0:	2a1303e3 	mov	w3, w19
  4010c4:	f90017f8 	str	x24, [sp, #40]
  4010c8:	2a1703e2 	mov	w2, w23
  4010cc:	b90033f7 	str	w23, [sp, #48]
  4010d0:	2a1903e1 	mov	w1, w25
  4010d4:	2a1603e0 	mov	w0, w22
  4010d8:	94000356 	bl	401e30 <_Z5cacheiiiiiiiiiPfiS_iS_i>
  4010dc:	b90003fc 	str	w28, [sp]
  4010e0:	295d1be7 	ldp	w7, w6, [sp, #232]
  4010e4:	f90007f4 	str	x20, [sp, #8]
  4010e8:	b90013f3 	str	w19, [sp, #16]
  4010ec:	2a1a03e5 	mov	w5, w26
  4010f0:	f9000ff5 	str	x21, [sp, #24]
  4010f4:	2a1b03e4 	mov	w4, w27
  4010f8:	b90023f7 	str	w23, [sp, #32]
  4010fc:	2a1303e3 	mov	w3, w19
  401100:	f90017f8 	str	x24, [sp, #40]
  401104:	2a1703e2 	mov	w2, w23
  401108:	b90033f7 	str	w23, [sp, #48]
  40110c:	2a1903e1 	mov	w1, w25
  401110:	2a1603e0 	mov	w0, w22
  401114:	94000347 	bl	401e30 <_Z5cacheiiiiiiiiiPfiS_iS_i>
  401118:	b90003fc 	str	w28, [sp]
  40111c:	295d1be7 	ldp	w7, w6, [sp, #232]
  401120:	f90007f4 	str	x20, [sp, #8]
  401124:	b90013f3 	str	w19, [sp, #16]
  401128:	2a1a03e5 	mov	w5, w26
  40112c:	f9000ff5 	str	x21, [sp, #24]
  401130:	2a1b03e4 	mov	w4, w27
  401134:	b90023f7 	str	w23, [sp, #32]
  401138:	2a1303e3 	mov	w3, w19
  40113c:	f90017f8 	str	x24, [sp, #40]
  401140:	2a1703e2 	mov	w2, w23
  401144:	b90033f7 	str	w23, [sp, #48]
  401148:	2a1903e1 	mov	w1, w25
  40114c:	2a1603e0 	mov	w0, w22
  401150:	94000338 	bl	401e30 <_Z5cacheiiiiiiiiiPfiS_iS_i>
  401154:	b940f3eb 	ldr	w11, [sp, #240]
  401158:	7100156a 	subs	w10, w11, #0x5
  40115c:	54fff641 	b.ne	401024 <main+0x7a4>  // b.any
  401160:	f9407ff1 	ldr	x17, [sp, #248]
  401164:	910503e1 	add	x1, sp, #0x140
  401168:	f94083f0 	ldr	x16, [sp, #256]
  40116c:	52800020 	mov	w0, #0x1                   	// #1
  401170:	f900023f 	str	xzr, [x17]
  401174:	f900021f 	str	xzr, [x16]
  401178:	97fffdae 	bl	400830 <clock_gettime@plt>
  40117c:	5280258d 	mov	w13, #0x12c                 	// #300
  401180:	295d1be7 	ldp	w7, w6, [sp, #232]
  401184:	b90003fc 	str	w28, [sp]
  401188:	f90007f4 	str	x20, [sp, #8]
  40118c:	2a1a03e5 	mov	w5, w26
  401190:	b90013f3 	str	w19, [sp, #16]
  401194:	2a1b03e4 	mov	w4, w27
  401198:	f9000ff5 	str	x21, [sp, #24]
  40119c:	2a1303e3 	mov	w3, w19
  4011a0:	b90023f7 	str	w23, [sp, #32]
  4011a4:	2a1703e2 	mov	w2, w23
  4011a8:	f90017f8 	str	x24, [sp, #40]
  4011ac:	2a1903e1 	mov	w1, w25
  4011b0:	b90033f7 	str	w23, [sp, #48]
  4011b4:	2a1603e0 	mov	w0, w22
  4011b8:	b900f3ed 	str	w13, [sp, #240]
  4011bc:	9400031d 	bl	401e30 <_Z5cacheiiiiiiiiiPfiS_iS_i>
  4011c0:	b90003fc 	str	w28, [sp]
  4011c4:	295d1be7 	ldp	w7, w6, [sp, #232]
  4011c8:	f90007f4 	str	x20, [sp, #8]
  4011cc:	b90013f3 	str	w19, [sp, #16]
  4011d0:	2a1a03e5 	mov	w5, w26
  4011d4:	f9000ff5 	str	x21, [sp, #24]
  4011d8:	2a1b03e4 	mov	w4, w27
  4011dc:	b90023f7 	str	w23, [sp, #32]
  4011e0:	2a1303e3 	mov	w3, w19
  4011e4:	f90017f8 	str	x24, [sp, #40]
  4011e8:	2a1703e2 	mov	w2, w23
  4011ec:	b90033f7 	str	w23, [sp, #48]
  4011f0:	2a1903e1 	mov	w1, w25
  4011f4:	2a1603e0 	mov	w0, w22
  4011f8:	9400030e 	bl	401e30 <_Z5cacheiiiiiiiiiPfiS_iS_i>
  4011fc:	b90003fc 	str	w28, [sp]
  401200:	295d1be7 	ldp	w7, w6, [sp, #232]
  401204:	f90007f4 	str	x20, [sp, #8]
  401208:	b90013f3 	str	w19, [sp, #16]
  40120c:	2a1a03e5 	mov	w5, w26
  401210:	f9000ff5 	str	x21, [sp, #24]
  401214:	2a1b03e4 	mov	w4, w27
  401218:	b90023f7 	str	w23, [sp, #32]
  40121c:	2a1303e3 	mov	w3, w19
  401220:	f90017f8 	str	x24, [sp, #40]
  401224:	2a1703e2 	mov	w2, w23
  401228:	b90033f7 	str	w23, [sp, #48]
  40122c:	2a1903e1 	mov	w1, w25
  401230:	2a1603e0 	mov	w0, w22
  401234:	940002ff 	bl	401e30 <_Z5cacheiiiiiiiiiPfiS_iS_i>
  401238:	b90003fc 	str	w28, [sp]
  40123c:	295d1be7 	ldp	w7, w6, [sp, #232]
  401240:	f90007f4 	str	x20, [sp, #8]
  401244:	b90013f3 	str	w19, [sp, #16]
  401248:	2a1a03e5 	mov	w5, w26
  40124c:	f9000ff5 	str	x21, [sp, #24]
  401250:	2a1b03e4 	mov	w4, w27
  401254:	b90023f7 	str	w23, [sp, #32]
  401258:	2a1303e3 	mov	w3, w19
  40125c:	f90017f8 	str	x24, [sp, #40]
  401260:	2a1703e2 	mov	w2, w23
  401264:	b90033f7 	str	w23, [sp, #48]
  401268:	2a1903e1 	mov	w1, w25
  40126c:	2a1603e0 	mov	w0, w22
  401270:	940002f0 	bl	401e30 <_Z5cacheiiiiiiiiiPfiS_iS_i>
  401274:	b940f3ec 	ldr	w12, [sp, #240]
  401278:	7100118d 	subs	w13, w12, #0x4
  40127c:	54fff821 	b.ne	401180 <main+0x900>  // b.any
  401280:	910543e1 	add	x1, sp, #0x150
  401284:	52800020 	mov	w0, #0x1                   	// #1
  401288:	97fffd6a 	bl	400830 <clock_gettime@plt>
  40128c:	110006d6 	add	w22, w22, #0x1
  401290:	a9544bef 	ldp	x15, x18, [sp, #320]
  401294:	d2e80b2e 	mov	x14, #0x4059000000000000    	// #4636737291354636288
  401298:	a9550fe4 	ldp	x4, x3, [sp, #336]
  40129c:	9e6701d1 	fmov	d17, x14
  4012a0:	a95087e0 	ldp	x0, x1, [sp, #264]
  4012a4:	cb120066 	sub	x6, x3, x18
  4012a8:	cb0f0085 	sub	x5, x4, x15
  4012ac:	9e6200d3 	scvtf	d19, x6
  4012b0:	9e6200b2 	scvtf	d18, x5
  4012b4:	1f4d4a74 	fmadd	d20, d19, d13, d18
  4012b8:	1e691a95 	fdiv	d21, d20, d9
  4012bc:	1e6b0ab6 	fmul	d22, d21, d11
  4012c0:	1e680aa1 	fmul	d1, d21, d8
  4012c4:	1e761940 	fdiv	d0, d10, d22
  4012c8:	1e6c1817 	fdiv	d23, d0, d12
  4012cc:	1e710ae2 	fmul	d2, d23, d17
  4012d0:	97fffd68 	bl	400870 <printf@plt>
  4012d4:	a94f8be1 	ldp	x1, x2, [sp, #248]
  4012d8:	f9408fe0 	ldr	x0, [sp, #280]
  4012dc:	fd400058 	ldr	d24, [x2]
  4012e0:	fd40003a 	ldr	d26, [x1]
  4012e4:	1e691b19 	fdiv	d25, d24, d9
  4012e8:	1e691b4e 	fdiv	d14, d26, d9
  4012ec:	1e680b20 	fmul	d0, d25, d8
  4012f0:	97fffd60 	bl	400870 <printf@plt>
  4012f4:	1e6809c0 	fmul	d0, d14, d8
  4012f8:	f94093e0 	ldr	x0, [sp, #288]
  4012fc:	97fffd5d 	bl	400870 <printf@plt>
  401300:	a94f83e7 	ldp	x7, x0, [sp, #248]
  401304:	f90000ff 	str	xzr, [x7]
  401308:	f900001f 	str	xzr, [x0]
  40130c:	71001adf 	cmp	w22, #0x6
  401310:	54ffe881 	b.ne	401020 <main+0x7a0>  // b.any
  401314:	a95287f3 	ldp	x19, x1, [sp, #296]
  401318:	aa1803e4 	mov	x4, x24
  40131c:	b9413be0 	ldr	w0, [sp, #312]
  401320:	aa1303e2 	mov	x2, x19
  401324:	2a0103e5 	mov	w5, w1
  401328:	2a0103e3 	mov	w3, w1
  40132c:	94000145 	bl	401840 <_Z5checkiiPfiS_i>
  401330:	aa1403e0 	mov	x0, x20
  401334:	97fffd2b 	bl	4007e0 <free@plt>
  401338:	aa1503e0 	mov	x0, x21
  40133c:	97fffd29 	bl	4007e0 <free@plt>
  401340:	aa1303e0 	mov	x0, x19
  401344:	97fffd27 	bl	4007e0 <free@plt>
  401348:	aa1803e0 	mov	x0, x24
  40134c:	97fffd25 	bl	4007e0 <free@plt>
  401350:	a94553f3 	ldp	x19, x20, [sp, #80]
  401354:	a94763f7 	ldp	x23, x24, [sp, #112]
  401358:	a9486bf9 	ldp	x25, x26, [sp, #128]
  40135c:	a94973fb 	ldp	x27, x28, [sp, #144]
  401360:	6d4a27e8 	ldp	d8, d9, [sp, #160]
  401364:	6d4b2fea 	ldp	d10, d11, [sp, #176]
  401368:	6d4c37ec 	ldp	d12, d13, [sp, #192]
  40136c:	fd406bee 	ldr	d14, [sp, #208]
  401370:	17fffd4f 	b	4008ac <main+0x2c>
  401374:	7100001f 	cmp	w0, #0x0
  401378:	7a461b00 	ccmp	w24, #0x6, #0x0, ne  // ne = any
  40137c:	54ffb2e0 	b.eq	4009d8 <main+0x158>  // b.none
  401380:	710000ff 	cmp	w7, #0x0
  401384:	7a581ac0 	ccmp	w22, #0x18, #0x0, ne  // ne = any
  401388:	54ffb280 	b.eq	4009d8 <main+0x158>  // b.none
  40138c:	7100001f 	cmp	w0, #0x0
  401390:	7a431b00 	ccmp	w24, #0x3, #0x0, ne  // ne = any
  401394:	54ffb220 	b.eq	4009d8 <main+0x158>  // b.none
  401398:	b00000e8 	adrp	x8, 41e000 <_Z21register_block_vv_3x4ILi3ELi16EEviPKfS1_Pfi+0xe0>
  40139c:	910be100 	add	x0, x8, #0x2f8
  4013a0:	97fffd04 	bl	4007b0 <puts@plt>
  4013a4:	a94553f3 	ldp	x19, x20, [sp, #80]
  4013a8:	52800020 	mov	w0, #0x1                   	// #1
  4013ac:	a94763f7 	ldp	x23, x24, [sp, #112]
  4013b0:	a9486bf9 	ldp	x25, x26, [sp, #128]
  4013b4:	a94973fb 	ldp	x27, x28, [sp, #144]
  4013b8:	17fffd3e 	b	4008b0 <main+0x30>

00000000004013bc <_start>:
  4013bc:	d280001d 	mov	x29, #0x0                   	// #0
  4013c0:	d280001e 	mov	x30, #0x0                   	// #0
  4013c4:	aa0003e5 	mov	x5, x0
  4013c8:	f94003e1 	ldr	x1, [sp]
  4013cc:	910023e2 	add	x2, sp, #0x8
  4013d0:	910003e6 	mov	x6, sp
  4013d4:	90000000 	adrp	x0, 401000 <main+0x780>
  4013d8:	910fd000 	add	x0, x0, #0x3f4
  4013dc:	b00000e3 	adrp	x3, 41e000 <_Z21register_block_vv_3x4ILi3ELi16EEviPKfS1_Pfi+0xe0>
  4013e0:	9108c063 	add	x3, x3, #0x230
  4013e4:	b00000e4 	adrp	x4, 41e000 <_Z21register_block_vv_3x4ILi3ELi16EEviPKfS1_Pfi+0xe0>
  4013e8:	910ac084 	add	x4, x4, #0x2b0
  4013ec:	97fffd0d 	bl	400820 <__libc_start_main@plt>
  4013f0:	97fffd18 	bl	400850 <abort@plt>

00000000004013f4 <__wrap_main>:
  4013f4:	17fffd23 	b	400880 <main>

00000000004013f8 <call_weak_fn>:
  4013f8:	d0000160 	adrp	x0, 42f000 <__FRAME_END__+0xf820>
  4013fc:	f947ec00 	ldr	x0, [x0, #4056]
  401400:	b4000040 	cbz	x0, 401408 <call_weak_fn+0x10>
  401404:	17fffd17 	b	400860 <__gmon_start__@plt>
  401408:	d65f03c0 	ret
  40140c:	d503201f 	nop

0000000000401410 <deregister_tm_clones>:
  401410:	f0000160 	adrp	x0, 430000 <puts@GLIBC_2.17>
  401414:	9101e000 	add	x0, x0, #0x78
  401418:	f0000161 	adrp	x1, 430000 <puts@GLIBC_2.17>
  40141c:	9101e021 	add	x1, x1, #0x78
  401420:	eb00003f 	cmp	x1, x0
  401424:	540000c0 	b.eq	40143c <deregister_tm_clones+0x2c>  // b.none
  401428:	d0000161 	adrp	x1, 42f000 <__FRAME_END__+0xf820>
  40142c:	f947e821 	ldr	x1, [x1, #4048]
  401430:	b4000061 	cbz	x1, 40143c <deregister_tm_clones+0x2c>
  401434:	aa0103f0 	mov	x16, x1
  401438:	d61f0200 	br	x16
  40143c:	d65f03c0 	ret

0000000000401440 <register_tm_clones>:
  401440:	f0000160 	adrp	x0, 430000 <puts@GLIBC_2.17>
  401444:	9101e000 	add	x0, x0, #0x78
  401448:	f0000161 	adrp	x1, 430000 <puts@GLIBC_2.17>
  40144c:	9101e021 	add	x1, x1, #0x78
  401450:	cb000021 	sub	x1, x1, x0
  401454:	d37ffc22 	lsr	x2, x1, #63
  401458:	8b810c41 	add	x1, x2, x1, asr #3
  40145c:	9341fc21 	asr	x1, x1, #1
  401460:	b40000c1 	cbz	x1, 401478 <register_tm_clones+0x38>
  401464:	d0000162 	adrp	x2, 42f000 <__FRAME_END__+0xf820>
  401468:	f947f042 	ldr	x2, [x2, #4064]
  40146c:	b4000062 	cbz	x2, 401478 <register_tm_clones+0x38>
  401470:	aa0203f0 	mov	x16, x2
  401474:	d61f0200 	br	x16
  401478:	d65f03c0 	ret
  40147c:	d503201f 	nop

0000000000401480 <__do_global_dtors_aux>:
  401480:	a9be7bfd 	stp	x29, x30, [sp, #-32]!
  401484:	910003fd 	mov	x29, sp
  401488:	f9000bf3 	str	x19, [sp, #16]
  40148c:	f0000173 	adrp	x19, 430000 <puts@GLIBC_2.17>
  401490:	3941e260 	ldrb	w0, [x19, #120]
  401494:	37000080 	tbnz	w0, #0, 4014a4 <__do_global_dtors_aux+0x24>
  401498:	97ffffde 	bl	401410 <deregister_tm_clones>
  40149c:	52800020 	mov	w0, #0x1                   	// #1
  4014a0:	3901e260 	strb	w0, [x19, #120]
  4014a4:	f9400bf3 	ldr	x19, [sp, #16]
  4014a8:	a8c27bfd 	ldp	x29, x30, [sp], #32
  4014ac:	d65f03c0 	ret

00000000004014b0 <frame_dummy>:
  4014b0:	17ffffe4 	b	401440 <register_tm_clones>
  4014b4:	d503201f 	nop
  4014b8:	d503201f 	nop
  4014bc:	d503201f 	nop

00000000004014c0 <_Z5naiveiiiPfiS_iS_i>:
  4014c0:	a9b97bfd 	stp	x29, x30, [sp, #-112]!
  4014c4:	910003fd 	mov	x29, sp
  4014c8:	a9025bf5 	stp	x21, x22, [sp, #32]
  4014cc:	b94073f5 	ldr	w21, [sp, #112]
  4014d0:	b9006fe1 	str	w1, [sp, #108]
  4014d4:	7100001f 	cmp	w0, #0x0
  4014d8:	5400156d 	b.le	401784 <_Z5naiveiiiPfiS_iS_i+0x2c4>
  4014dc:	2a0403f6 	mov	w22, w4
  4014e0:	937e7eb5 	sbfiz	x21, x21, #2, #32
  4014e4:	a90153f3 	stp	x19, x20, [sp, #16]
  4014e8:	2a0003f3 	mov	w19, w0
  4014ec:	937e7c34 	sbfiz	x20, x1, #2, #32
  4014f0:	a90363f7 	stp	x23, x24, [sp, #48]
  4014f4:	aa0303f7 	mov	x23, x3
  4014f8:	2a0203f8 	mov	w24, w2
  4014fc:	a9046bf9 	stp	x25, x26, [sp, #64]
  401500:	2a0603fa 	mov	w26, w6
  401504:	aa0503f9 	mov	x25, x5
  401508:	aa0703e6 	mov	x6, x7
  40150c:	a90573fb 	stp	x27, x28, [sp, #80]
  401510:	2a0203fb 	mov	w27, w2
  401514:	5280001c 	mov	w28, #0x0                   	// #0
  401518:	aa1403e2 	mov	x2, x20
  40151c:	aa0603e0 	mov	x0, x6
  401520:	52800001 	mov	w1, #0x0                   	// #0
  401524:	97fffcb7 	bl	400800 <memset@plt>
  401528:	aa0003e3 	mov	x3, x0
  40152c:	7100037f 	cmp	w27, #0x0
  401530:	5400118d 	b.le	401760 <_Z5naiveiiiPfiS_iS_i+0x2a0>
  401534:	4b1b0306 	sub	w6, w24, w27
  401538:	72000b60 	ands	w0, w27, #0x7
  40153c:	52800008 	mov	w8, #0x0                   	// #0
  401540:	540016c0 	b.eq	401818 <_Z5naiveiiiPfiS_iS_i+0x358>  // b.none
  401544:	7100041f 	cmp	w0, #0x1
  401548:	540015a0 	b.eq	4017fc <_Z5naiveiiiPfiS_iS_i+0x33c>  // b.none
  40154c:	7100081f 	cmp	w0, #0x2
  401550:	540014c0 	b.eq	4017e8 <_Z5naiveiiiPfiS_iS_i+0x328>  // b.none
  401554:	71000c1f 	cmp	w0, #0x3
  401558:	540013e0 	b.eq	4017d4 <_Z5naiveiiiPfiS_iS_i+0x314>  // b.none
  40155c:	7100101f 	cmp	w0, #0x4
  401560:	54001300 	b.eq	4017c0 <_Z5naiveiiiPfiS_iS_i+0x300>  // b.none
  401564:	7100141f 	cmp	w0, #0x5
  401568:	54001220 	b.eq	4017ac <_Z5naiveiiiPfiS_iS_i+0x2ec>  // b.none
  40156c:	7100181f 	cmp	w0, #0x6
  401570:	54001140 	b.eq	401798 <_Z5naiveiiiPfiS_iS_i+0x2d8>  // b.none
  401574:	b9406fe1 	ldr	w1, [sp, #108]
  401578:	7100003f 	cmp	w1, #0x0
  40157c:	540010ad 	b.le	401790 <_Z5naiveiiiPfiS_iS_i+0x2d0>
  401580:	d100128c 	sub	x12, x20, #0x4
  401584:	93407ccd 	sxtw	x13, w6
  401588:	8b26caee 	add	x14, x23, w6, sxtw #2
  40158c:	93407d0f 	sxtw	x15, w8
  401590:	d342fd90 	lsr	x16, x12, #2
  401594:	8b28cb31 	add	x17, x25, w8, sxtw #2
  401598:	91000612 	add	x18, x16, #0x1
  40159c:	d2800000 	mov	x0, #0x0                   	// #0
  4015a0:	f2400a5e 	ands	x30, x18, #0x7
  4015a4:	54000720 	b.eq	401688 <_Z5naiveiiiPfiS_iS_i+0x1c8>  // b.none
  4015a8:	f10007df 	cmp	x30, #0x1
  4015ac:	540005e0 	b.eq	401668 <_Z5naiveiiiPfiS_iS_i+0x1a8>  // b.none
  4015b0:	f1000bdf 	cmp	x30, #0x2
  4015b4:	540004e0 	b.eq	401650 <_Z5naiveiiiPfiS_iS_i+0x190>  // b.none
  4015b8:	f1000fdf 	cmp	x30, #0x3
  4015bc:	540003e0 	b.eq	401638 <_Z5naiveiiiPfiS_iS_i+0x178>  // b.none
  4015c0:	f10013df 	cmp	x30, #0x4
  4015c4:	540002e0 	b.eq	401620 <_Z5naiveiiiPfiS_iS_i+0x160>  // b.none
  4015c8:	f10017df 	cmp	x30, #0x5
  4015cc:	540001e0 	b.eq	401608 <_Z5naiveiiiPfiS_iS_i+0x148>  // b.none
  4015d0:	f1001bdf 	cmp	x30, #0x6
  4015d4:	540000e0 	b.eq	4015f0 <_Z5naiveiiiPfiS_iS_i+0x130>  // b.none
  4015d8:	bc6d7ae2 	ldr	s2, [x23, x13, lsl #2]
  4015dc:	d2800080 	mov	x0, #0x4                   	// #4
  4015e0:	bc6f7b21 	ldr	s1, [x25, x15, lsl #2]
  4015e4:	bd400060 	ldr	s0, [x3]
  4015e8:	1f010043 	fmadd	s3, s2, s1, s0
  4015ec:	bd000063 	str	s3, [x3]
  4015f0:	bc606a25 	ldr	s5, [x17, x0]
  4015f4:	bc6d7ae4 	ldr	s4, [x23, x13, lsl #2]
  4015f8:	bc606866 	ldr	s6, [x3, x0]
  4015fc:	1f051887 	fmadd	s7, s4, s5, s6
  401600:	bc206867 	str	s7, [x3, x0]
  401604:	91001000 	add	x0, x0, #0x4
  401608:	bc606a31 	ldr	s17, [x17, x0]
  40160c:	bc6d7af0 	ldr	s16, [x23, x13, lsl #2]
  401610:	bc606872 	ldr	s18, [x3, x0]
  401614:	1f114a13 	fmadd	s19, s16, s17, s18
  401618:	bc206873 	str	s19, [x3, x0]
  40161c:	91001000 	add	x0, x0, #0x4
  401620:	bc606a35 	ldr	s21, [x17, x0]
  401624:	bc6d7af4 	ldr	s20, [x23, x13, lsl #2]
  401628:	bc606876 	ldr	s22, [x3, x0]
  40162c:	1f155a97 	fmadd	s23, s20, s21, s22
  401630:	bc206877 	str	s23, [x3, x0]
  401634:	91001000 	add	x0, x0, #0x4
  401638:	bc606a39 	ldr	s25, [x17, x0]
  40163c:	bc6d7af8 	ldr	s24, [x23, x13, lsl #2]
  401640:	bc60687a 	ldr	s26, [x3, x0]
  401644:	1f196b1b 	fmadd	s27, s24, s25, s26
  401648:	bc20687b 	str	s27, [x3, x0]
  40164c:	91001000 	add	x0, x0, #0x4
  401650:	bc606a3d 	ldr	s29, [x17, x0]
  401654:	bc6d7afc 	ldr	s28, [x23, x13, lsl #2]
  401658:	bc60687e 	ldr	s30, [x3, x0]
  40165c:	1f1d7b9f 	fmadd	s31, s28, s29, s30
  401660:	bc20687f 	str	s31, [x3, x0]
  401664:	91001000 	add	x0, x0, #0x4
  401668:	bc606a21 	ldr	s1, [x17, x0]
  40166c:	bc6d7ae2 	ldr	s2, [x23, x13, lsl #2]
  401670:	bc606860 	ldr	s0, [x3, x0]
  401674:	1f010043 	fmadd	s3, s2, s1, s0
  401678:	bc206863 	str	s3, [x3, x0]
  40167c:	91001000 	add	x0, x0, #0x4
  401680:	eb00029f 	cmp	x20, x0
  401684:	54000660 	b.eq	401750 <_Z5naiveiiiPfiS_iS_i+0x290>  // b.none
  401688:	bc606a24 	ldr	s4, [x17, x0]
  40168c:	91001001 	add	x1, x0, #0x4
  401690:	bd4001c6 	ldr	s6, [x14]
  401694:	91002002 	add	x2, x0, #0x8
  401698:	bc606865 	ldr	s5, [x3, x0]
  40169c:	91003004 	add	x4, x0, #0xc
  4016a0:	91004005 	add	x5, x0, #0x10
  4016a4:	9100500a 	add	x10, x0, #0x14
  4016a8:	1f0414c7 	fmadd	s7, s6, s4, s5
  4016ac:	91006009 	add	x9, x0, #0x18
  4016b0:	91007007 	add	x7, x0, #0x1c
  4016b4:	bc206867 	str	s7, [x3, x0]
  4016b8:	91008000 	add	x0, x0, #0x20
  4016bc:	bc616a30 	ldr	s16, [x17, x1]
  4016c0:	bd4001d2 	ldr	s18, [x14]
  4016c4:	bc616871 	ldr	s17, [x3, x1]
  4016c8:	1f104653 	fmadd	s19, s18, s16, s17
  4016cc:	bc216873 	str	s19, [x3, x1]
  4016d0:	bc626a34 	ldr	s20, [x17, x2]
  4016d4:	bd4001d6 	ldr	s22, [x14]
  4016d8:	bc626875 	ldr	s21, [x3, x2]
  4016dc:	1f1456d7 	fmadd	s23, s22, s20, s21
  4016e0:	bc226877 	str	s23, [x3, x2]
  4016e4:	bc646a38 	ldr	s24, [x17, x4]
  4016e8:	bd4001da 	ldr	s26, [x14]
  4016ec:	bc646879 	ldr	s25, [x3, x4]
  4016f0:	1f18675b 	fmadd	s27, s26, s24, s25
  4016f4:	bc24687b 	str	s27, [x3, x4]
  4016f8:	bc656a3c 	ldr	s28, [x17, x5]
  4016fc:	bd4001de 	ldr	s30, [x14]
  401700:	bc65687d 	ldr	s29, [x3, x5]
  401704:	1f1c77df 	fmadd	s31, s30, s28, s29
  401708:	bc25687f 	str	s31, [x3, x5]
  40170c:	bc6a6a21 	ldr	s1, [x17, x10]
  401710:	bd4001c2 	ldr	s2, [x14]
  401714:	bc6a6860 	ldr	s0, [x3, x10]
  401718:	1f010043 	fmadd	s3, s2, s1, s0
  40171c:	bc2a6863 	str	s3, [x3, x10]
  401720:	bc696a24 	ldr	s4, [x17, x9]
  401724:	bd4001c6 	ldr	s6, [x14]
  401728:	bc696865 	ldr	s5, [x3, x9]
  40172c:	1f0414c7 	fmadd	s7, s6, s4, s5
  401730:	bc296867 	str	s7, [x3, x9]
  401734:	bc676a30 	ldr	s16, [x17, x7]
  401738:	bd4001d2 	ldr	s18, [x14]
  40173c:	bc676871 	ldr	s17, [x3, x7]
  401740:	1f104653 	fmadd	s19, s18, s16, s17
  401744:	bc276873 	str	s19, [x3, x7]
  401748:	eb00029f 	cmp	x20, x0
  40174c:	54fff9e1 	b.ne	401688 <_Z5naiveiiiPfiS_iS_i+0x1c8>  // b.any
  401750:	110004c6 	add	w6, w6, #0x1
  401754:	0b1a0108 	add	w8, w8, w26
  401758:	6b1800df 	cmp	w6, w24
  40175c:	54fff121 	b.ne	401580 <_Z5naiveiiiPfiS_iS_i+0xc0>  // b.any
  401760:	1100079c 	add	w28, w28, #0x1
  401764:	8b150066 	add	x6, x3, x21
  401768:	0b160318 	add	w24, w24, w22
  40176c:	6b1c027f 	cmp	w19, w28
  401770:	54ffed41 	b.ne	401518 <_Z5naiveiiiPfiS_iS_i+0x58>  // b.any
  401774:	a94153f3 	ldp	x19, x20, [sp, #16]
  401778:	a94363f7 	ldp	x23, x24, [sp, #48]
  40177c:	a9446bf9 	ldp	x25, x26, [sp, #64]
  401780:	a94573fb 	ldp	x27, x28, [sp, #80]
  401784:	a9425bf5 	ldp	x21, x22, [sp, #32]
  401788:	a8c77bfd 	ldp	x29, x30, [sp], #112
  40178c:	d65f03c0 	ret
  401790:	110004c6 	add	w6, w6, #0x1
  401794:	2a1a03e8 	mov	w8, w26
  401798:	b9406fe2 	ldr	w2, [sp, #108]
  40179c:	7100005f 	cmp	w2, #0x0
  4017a0:	54ffef0c 	b.gt	401580 <_Z5naiveiiiPfiS_iS_i+0xc0>
  4017a4:	0b1a0108 	add	w8, w8, w26
  4017a8:	110004c6 	add	w6, w6, #0x1
  4017ac:	b9406fe4 	ldr	w4, [sp, #108]
  4017b0:	7100009f 	cmp	w4, #0x0
  4017b4:	54ffee6c 	b.gt	401580 <_Z5naiveiiiPfiS_iS_i+0xc0>
  4017b8:	0b1a0108 	add	w8, w8, w26
  4017bc:	110004c6 	add	w6, w6, #0x1
  4017c0:	b9406fe5 	ldr	w5, [sp, #108]
  4017c4:	710000bf 	cmp	w5, #0x0
  4017c8:	54ffedcc 	b.gt	401580 <_Z5naiveiiiPfiS_iS_i+0xc0>
  4017cc:	0b1a0108 	add	w8, w8, w26
  4017d0:	110004c6 	add	w6, w6, #0x1
  4017d4:	b9406fe7 	ldr	w7, [sp, #108]
  4017d8:	710000ff 	cmp	w7, #0x0
  4017dc:	54ffed2c 	b.gt	401580 <_Z5naiveiiiPfiS_iS_i+0xc0>
  4017e0:	0b1a0108 	add	w8, w8, w26
  4017e4:	110004c6 	add	w6, w6, #0x1
  4017e8:	b9406fe9 	ldr	w9, [sp, #108]
  4017ec:	7100013f 	cmp	w9, #0x0
  4017f0:	54ffec8c 	b.gt	401580 <_Z5naiveiiiPfiS_iS_i+0xc0>
  4017f4:	0b1a0108 	add	w8, w8, w26
  4017f8:	110004c6 	add	w6, w6, #0x1
  4017fc:	b9406fea 	ldr	w10, [sp, #108]
  401800:	7100015f 	cmp	w10, #0x0
  401804:	54ffebec 	b.gt	401580 <_Z5naiveiiiPfiS_iS_i+0xc0>
  401808:	110004c6 	add	w6, w6, #0x1
  40180c:	0b1a0108 	add	w8, w8, w26
  401810:	6b1800df 	cmp	w6, w24
  401814:	54fffa60 	b.eq	401760 <_Z5naiveiiiPfiS_iS_i+0x2a0>  // b.none
  401818:	b9406feb 	ldr	w11, [sp, #108]
  40181c:	7100017f 	cmp	w11, #0x0
  401820:	54ffeb0c 	b.gt	401580 <_Z5naiveiiiPfiS_iS_i+0xc0>
  401824:	110020c6 	add	w6, w6, #0x8
  401828:	0b1a0d08 	add	w8, w8, w26, lsl #3
  40182c:	6b1800df 	cmp	w6, w24
  401830:	54ffff41 	b.ne	401818 <_Z5naiveiiiPfiS_iS_i+0x358>  // b.any
  401834:	17ffffcb 	b	401760 <_Z5naiveiiiPfiS_iS_i+0x2a0>
  401838:	d503201f 	nop
  40183c:	d503201f 	nop

0000000000401840 <_Z5checkiiPfiS_i>:
  401840:	2f00e400 	movi	d0, #0x0
  401844:	7100001f 	cmp	w0, #0x0
  401848:	5400104d 	b.le	401a50 <_Z5checkiiPfiS_i+0x210>
  40184c:	0f000400 	movi	v0.2s, #0x0
  401850:	937e7c2d 	sbfiz	x13, x1, #2, #32
  401854:	5280000b 	mov	w11, #0x0                   	// #0
  401858:	5280000a 	mov	w10, #0x0                   	// #0
  40185c:	5280000c 	mov	w12, #0x0                   	// #0
  401860:	7100003f 	cmp	w1, #0x0
  401864:	54000ead 	b.le	401a38 <_Z5checkiiPfiS_i+0x1f8>
  401868:	d10011a7 	sub	x7, x13, #0x4
  40186c:	93407d4f 	sxtw	x15, w10
  401870:	8b2ac848 	add	x8, x2, w10, sxtw #2
  401874:	93407d6e 	sxtw	x14, w11
  401878:	d342fce6 	lsr	x6, x7, #2
  40187c:	8b2bc889 	add	x9, x4, w11, sxtw #2
  401880:	910004d0 	add	x16, x6, #0x1
  401884:	d2800012 	mov	x18, #0x0                   	// #0
  401888:	f2400a11 	ands	x17, x16, #0x7
  40188c:	54000720 	b.eq	401970 <_Z5checkiiPfiS_i+0x130>  // b.none
  401890:	f100063f 	cmp	x17, #0x1
  401894:	540005e0 	b.eq	401950 <_Z5checkiiPfiS_i+0x110>  // b.none
  401898:	f1000a3f 	cmp	x17, #0x2
  40189c:	540004e0 	b.eq	401938 <_Z5checkiiPfiS_i+0xf8>  // b.none
  4018a0:	f1000e3f 	cmp	x17, #0x3
  4018a4:	540003e0 	b.eq	401920 <_Z5checkiiPfiS_i+0xe0>  // b.none
  4018a8:	f100123f 	cmp	x17, #0x4
  4018ac:	540002e0 	b.eq	401908 <_Z5checkiiPfiS_i+0xc8>  // b.none
  4018b0:	f100163f 	cmp	x17, #0x5
  4018b4:	540001e0 	b.eq	4018f0 <_Z5checkiiPfiS_i+0xb0>  // b.none
  4018b8:	f1001a3f 	cmp	x17, #0x6
  4018bc:	540000e0 	b.eq	4018d8 <_Z5checkiiPfiS_i+0x98>  // b.none
  4018c0:	bc6f7841 	ldr	s1, [x2, x15, lsl #2]
  4018c4:	bc6e7882 	ldr	s2, [x4, x14, lsl #2]
  4018c8:	7ea2d423 	fabd	s3, s1, s2
  4018cc:	1e202070 	fcmpe	s3, s0
  4018d0:	54000fec 	b.gt	401acc <_Z5checkiiPfiS_i+0x28c>
  4018d4:	d2800092 	mov	x18, #0x4                   	// #4
  4018d8:	bc726904 	ldr	s4, [x8, x18]
  4018dc:	bc726925 	ldr	s5, [x9, x18]
  4018e0:	7ea5d486 	fabd	s6, s4, s5
  4018e4:	1e2020d0 	fcmpe	s6, s0
  4018e8:	54000cac 	b.gt	401a7c <_Z5checkiiPfiS_i+0x23c>
  4018ec:	91001252 	add	x18, x18, #0x4
  4018f0:	bc726907 	ldr	s7, [x8, x18]
  4018f4:	bc726930 	ldr	s16, [x9, x18]
  4018f8:	7eb0d4f1 	fabd	s17, s7, s16
  4018fc:	1e202230 	fcmpe	s17, s0
  401900:	54000bac 	b.gt	401a74 <_Z5checkiiPfiS_i+0x234>
  401904:	91001252 	add	x18, x18, #0x4
  401908:	bc726912 	ldr	s18, [x8, x18]
  40190c:	bc726933 	ldr	s19, [x9, x18]
  401910:	7eb3d654 	fabd	s20, s18, s19
  401914:	1e202290 	fcmpe	s20, s0
  401918:	54000aac 	b.gt	401a6c <_Z5checkiiPfiS_i+0x22c>
  40191c:	91001252 	add	x18, x18, #0x4
  401920:	bc726915 	ldr	s21, [x8, x18]
  401924:	bc726936 	ldr	s22, [x9, x18]
  401928:	7eb6d6b7 	fabd	s23, s21, s22
  40192c:	1e2022f0 	fcmpe	s23, s0
  401930:	540009ac 	b.gt	401a64 <_Z5checkiiPfiS_i+0x224>
  401934:	91001252 	add	x18, x18, #0x4
  401938:	bc726918 	ldr	s24, [x8, x18]
  40193c:	bc726939 	ldr	s25, [x9, x18]
  401940:	7eb9d71a 	fabd	s26, s24, s25
  401944:	1e202350 	fcmpe	s26, s0
  401948:	540008ac 	b.gt	401a5c <_Z5checkiiPfiS_i+0x21c>
  40194c:	91001252 	add	x18, x18, #0x4
  401950:	bc72691b 	ldr	s27, [x8, x18]
  401954:	bc72693c 	ldr	s28, [x9, x18]
  401958:	7ebcd77d 	fabd	s29, s27, s28
  40195c:	1e2023b0 	fcmpe	s29, s0
  401960:	54000b2c 	b.gt	401ac4 <_Z5checkiiPfiS_i+0x284>
  401964:	91001252 	add	x18, x18, #0x4
  401968:	eb1201bf 	cmp	x13, x18
  40196c:	54000660 	b.eq	401a38 <_Z5checkiiPfiS_i+0x1f8>  // b.none
  401970:	bc72691e 	ldr	s30, [x8, x18]
  401974:	bc72693f 	ldr	s31, [x9, x18]
  401978:	7ebfd7c1 	fabd	s1, s30, s31
  40197c:	1e202030 	fcmpe	s1, s0
  401980:	540009ec 	b.gt	401abc <_Z5checkiiPfiS_i+0x27c>
  401984:	91001252 	add	x18, x18, #0x4
  401988:	bc726903 	ldr	s3, [x8, x18]
  40198c:	bc726922 	ldr	s2, [x9, x18]
  401990:	7ea2d464 	fabd	s4, s3, s2
  401994:	1e202090 	fcmpe	s4, s0
  401998:	540008ec 	b.gt	401ab4 <_Z5checkiiPfiS_i+0x274>
  40199c:	91001247 	add	x7, x18, #0x4
  4019a0:	bc676905 	ldr	s5, [x8, x7]
  4019a4:	bc676926 	ldr	s6, [x9, x7]
  4019a8:	7ea6d4a7 	fabd	s7, s5, s6
  4019ac:	1e2020f0 	fcmpe	s7, s0
  4019b0:	540007ec 	b.gt	401aac <_Z5checkiiPfiS_i+0x26c>
  4019b4:	9100224f 	add	x15, x18, #0x8
  4019b8:	bc6f6910 	ldr	s16, [x8, x15]
  4019bc:	bc6f6931 	ldr	s17, [x9, x15]
  4019c0:	7eb1d612 	fabd	s18, s16, s17
  4019c4:	1e202250 	fcmpe	s18, s0
  4019c8:	540006ec 	b.gt	401aa4 <_Z5checkiiPfiS_i+0x264>
  4019cc:	9100324e 	add	x14, x18, #0xc
  4019d0:	bc6e6913 	ldr	s19, [x8, x14]
  4019d4:	bc6e6934 	ldr	s20, [x9, x14]
  4019d8:	7eb4d675 	fabd	s21, s19, s20
  4019dc:	1e2022b0 	fcmpe	s21, s0
  4019e0:	540005ec 	b.gt	401a9c <_Z5checkiiPfiS_i+0x25c>
  4019e4:	91004246 	add	x6, x18, #0x10
  4019e8:	bc666916 	ldr	s22, [x8, x6]
  4019ec:	bc666937 	ldr	s23, [x9, x6]
  4019f0:	7eb7d6d8 	fabd	s24, s22, s23
  4019f4:	1e202310 	fcmpe	s24, s0
  4019f8:	540004ec 	b.gt	401a94 <_Z5checkiiPfiS_i+0x254>
  4019fc:	91005250 	add	x16, x18, #0x14
  401a00:	bc706919 	ldr	s25, [x8, x16]
  401a04:	bc70693a 	ldr	s26, [x9, x16]
  401a08:	7ebad73b 	fabd	s27, s25, s26
  401a0c:	1e202370 	fcmpe	s27, s0
  401a10:	540003ec 	b.gt	401a8c <_Z5checkiiPfiS_i+0x24c>
  401a14:	91006251 	add	x17, x18, #0x18
  401a18:	bc71691c 	ldr	s28, [x8, x17]
  401a1c:	bc71693d 	ldr	s29, [x9, x17]
  401a20:	7ebdd79e 	fabd	s30, s28, s29
  401a24:	1e2023d0 	fcmpe	s30, s0
  401a28:	540002ec 	b.gt	401a84 <_Z5checkiiPfiS_i+0x244>
  401a2c:	91007252 	add	x18, x18, #0x1c
  401a30:	eb1201bf 	cmp	x13, x18
  401a34:	54fff9e1 	b.ne	401970 <_Z5checkiiPfiS_i+0x130>  // b.any
  401a38:	1100058c 	add	w12, w12, #0x1
  401a3c:	0b03014a 	add	w10, w10, w3
  401a40:	0b05016b 	add	w11, w11, w5
  401a44:	6b0c001f 	cmp	w0, w12
  401a48:	54fff0c1 	b.ne	401860 <_Z5checkiiPfiS_i+0x20>  // b.any
  401a4c:	1e22c000 	fcvt	d0, s0
  401a50:	b00000e0 	adrp	x0, 41e000 <_Z21register_block_vv_3x4ILi3ELi16EEviPKfS1_Pfi+0xe0>
  401a54:	910f8000 	add	x0, x0, #0x3e0
  401a58:	17fffb86 	b	400870 <printf@plt>
  401a5c:	1e204340 	fmov	s0, s26
  401a60:	17ffffbb 	b	40194c <_Z5checkiiPfiS_i+0x10c>
  401a64:	1e2042e0 	fmov	s0, s23
  401a68:	17ffffb3 	b	401934 <_Z5checkiiPfiS_i+0xf4>
  401a6c:	1e204280 	fmov	s0, s20
  401a70:	17ffffab 	b	40191c <_Z5checkiiPfiS_i+0xdc>
  401a74:	1e204220 	fmov	s0, s17
  401a78:	17ffffa3 	b	401904 <_Z5checkiiPfiS_i+0xc4>
  401a7c:	1e2040c0 	fmov	s0, s6
  401a80:	17ffff9b 	b	4018ec <_Z5checkiiPfiS_i+0xac>
  401a84:	1e2043c0 	fmov	s0, s30
  401a88:	17ffffe9 	b	401a2c <_Z5checkiiPfiS_i+0x1ec>
  401a8c:	1e204360 	fmov	s0, s27
  401a90:	17ffffe1 	b	401a14 <_Z5checkiiPfiS_i+0x1d4>
  401a94:	1e204300 	fmov	s0, s24
  401a98:	17ffffd9 	b	4019fc <_Z5checkiiPfiS_i+0x1bc>
  401a9c:	1e2042a0 	fmov	s0, s21
  401aa0:	17ffffd1 	b	4019e4 <_Z5checkiiPfiS_i+0x1a4>
  401aa4:	1e204240 	fmov	s0, s18
  401aa8:	17ffffc9 	b	4019cc <_Z5checkiiPfiS_i+0x18c>
  401aac:	1e2040e0 	fmov	s0, s7
  401ab0:	17ffffc1 	b	4019b4 <_Z5checkiiPfiS_i+0x174>
  401ab4:	1e204080 	fmov	s0, s4
  401ab8:	17ffffb9 	b	40199c <_Z5checkiiPfiS_i+0x15c>
  401abc:	1e204020 	fmov	s0, s1
  401ac0:	17ffffb1 	b	401984 <_Z5checkiiPfiS_i+0x144>
  401ac4:	1e2043a0 	fmov	s0, s29
  401ac8:	17ffffa7 	b	401964 <_Z5checkiiPfiS_i+0x124>
  401acc:	1e204060 	fmov	s0, s3
  401ad0:	17ffff81 	b	4018d4 <_Z5checkiiPfiS_i+0x94>
  401ad4:	d503201f 	nop
  401ad8:	d503201f 	nop
  401adc:	d503201f 	nop

0000000000401ae0 <_Z13naive_computeiiiPKfiS0_iPfi>:
  401ae0:	a9bb7bfd 	stp	x29, x30, [sp, #-80]!
  401ae4:	910003fd 	mov	x29, sp
  401ae8:	a9025bf5 	stp	x21, x22, [sp, #32]
  401aec:	b94053f6 	ldr	w22, [sp, #80]
  401af0:	7100001f 	cmp	w0, #0x0
  401af4:	5400150d 	b.le	401d94 <_Z13naive_computeiiiPKfiS0_iPfi+0x2b4>
  401af8:	2a0003f1 	mov	w17, w0
  401afc:	aa0303e8 	mov	x8, x3
  401b00:	2a0403fe 	mov	w30, w4
  401b04:	aa0503ed 	mov	x13, x5
  401b08:	2a0603ee 	mov	w14, w6
  401b0c:	aa0703f5 	mov	x21, x7
  401b10:	2a0203ec 	mov	w12, w2
  401b14:	937e7c2b 	sbfiz	x11, x1, #2, #32
  401b18:	a90153f3 	stp	x19, x20, [sp, #16]
  401b1c:	2a0103f4 	mov	w20, w1
  401b20:	2a0203f3 	mov	w19, w2
  401b24:	52800012 	mov	w18, #0x0                   	// #0
  401b28:	5280000f 	mov	w15, #0x0                   	// #0
  401b2c:	52800010 	mov	w16, #0x0                   	// #0
  401b30:	a90363f7 	stp	x23, x24, [sp, #48]
  401b34:	f90023f9 	str	x25, [sp, #64]
  401b38:	7100027f 	cmp	w19, #0x0
  401b3c:	540011ad 	b.le	401d70 <_Z13naive_computeiiiPKfiS0_iPfi+0x290>
  401b40:	4b0f0180 	sub	w0, w12, w15
  401b44:	8b32caa1 	add	x1, x21, w18, sxtw #2
  401b48:	72000802 	ands	w2, w0, #0x7
  401b4c:	2a0f03e5 	mov	w5, w15
  401b50:	52800007 	mov	w7, #0x0                   	// #0
  401b54:	540015e0 	b.eq	401e10 <_Z13naive_computeiiiPKfiS0_iPfi+0x330>  // b.none
  401b58:	7100045f 	cmp	w2, #0x1
  401b5c:	540014e0 	b.eq	401df8 <_Z13naive_computeiiiPKfiS0_iPfi+0x318>  // b.none
  401b60:	7100085f 	cmp	w2, #0x2
  401b64:	54001420 	b.eq	401de8 <_Z13naive_computeiiiPKfiS0_iPfi+0x308>  // b.none
  401b68:	71000c5f 	cmp	w2, #0x3
  401b6c:	54001360 	b.eq	401dd8 <_Z13naive_computeiiiPKfiS0_iPfi+0x2f8>  // b.none
  401b70:	7100105f 	cmp	w2, #0x4
  401b74:	540012a0 	b.eq	401dc8 <_Z13naive_computeiiiPKfiS0_iPfi+0x2e8>  // b.none
  401b78:	7100145f 	cmp	w2, #0x5
  401b7c:	540011e0 	b.eq	401db8 <_Z13naive_computeiiiPKfiS0_iPfi+0x2d8>  // b.none
  401b80:	7100185f 	cmp	w2, #0x6
  401b84:	54001120 	b.eq	401da8 <_Z13naive_computeiiiPKfiS0_iPfi+0x2c8>  // b.none
  401b88:	7100029f 	cmp	w20, #0x0
  401b8c:	540010ad 	b.le	401da0 <_Z13naive_computeiiiPKfiS0_iPfi+0x2c0>
  401b90:	d1001163 	sub	x3, x11, #0x4
  401b94:	93407ca6 	sxtw	x6, w5
  401b98:	8b25c904 	add	x4, x8, w5, sxtw #2
  401b9c:	93407ce9 	sxtw	x9, w7
  401ba0:	d342fc6a 	lsr	x10, x3, #2
  401ba4:	d2800000 	mov	x0, #0x0                   	// #0
  401ba8:	91000557 	add	x23, x10, #0x1
  401bac:	8b27c9a3 	add	x3, x13, w7, sxtw #2
  401bb0:	f2400af8 	ands	x24, x23, #0x7
  401bb4:	54000720 	b.eq	401c98 <_Z13naive_computeiiiPKfiS0_iPfi+0x1b8>  // b.none
  401bb8:	f100071f 	cmp	x24, #0x1
  401bbc:	540005e0 	b.eq	401c78 <_Z13naive_computeiiiPKfiS0_iPfi+0x198>  // b.none
  401bc0:	f1000b1f 	cmp	x24, #0x2
  401bc4:	540004e0 	b.eq	401c60 <_Z13naive_computeiiiPKfiS0_iPfi+0x180>  // b.none
  401bc8:	f1000f1f 	cmp	x24, #0x3
  401bcc:	540003e0 	b.eq	401c48 <_Z13naive_computeiiiPKfiS0_iPfi+0x168>  // b.none
  401bd0:	f100131f 	cmp	x24, #0x4
  401bd4:	540002e0 	b.eq	401c30 <_Z13naive_computeiiiPKfiS0_iPfi+0x150>  // b.none
  401bd8:	f100171f 	cmp	x24, #0x5
  401bdc:	540001e0 	b.eq	401c18 <_Z13naive_computeiiiPKfiS0_iPfi+0x138>  // b.none
  401be0:	f1001b1f 	cmp	x24, #0x6
  401be4:	540000e0 	b.eq	401c00 <_Z13naive_computeiiiPKfiS0_iPfi+0x120>  // b.none
  401be8:	bc667902 	ldr	s2, [x8, x6, lsl #2]
  401bec:	d2800080 	mov	x0, #0x4                   	// #4
  401bf0:	bc6979a1 	ldr	s1, [x13, x9, lsl #2]
  401bf4:	bd400020 	ldr	s0, [x1]
  401bf8:	1f010043 	fmadd	s3, s2, s1, s0
  401bfc:	bd000023 	str	s3, [x1]
  401c00:	bc606865 	ldr	s5, [x3, x0]
  401c04:	bc667904 	ldr	s4, [x8, x6, lsl #2]
  401c08:	bc606826 	ldr	s6, [x1, x0]
  401c0c:	1f051887 	fmadd	s7, s4, s5, s6
  401c10:	bc206827 	str	s7, [x1, x0]
  401c14:	91001000 	add	x0, x0, #0x4
  401c18:	bc606871 	ldr	s17, [x3, x0]
  401c1c:	bc667910 	ldr	s16, [x8, x6, lsl #2]
  401c20:	bc606832 	ldr	s18, [x1, x0]
  401c24:	1f114a13 	fmadd	s19, s16, s17, s18
  401c28:	bc206833 	str	s19, [x1, x0]
  401c2c:	91001000 	add	x0, x0, #0x4
  401c30:	bc606875 	ldr	s21, [x3, x0]
  401c34:	bc667914 	ldr	s20, [x8, x6, lsl #2]
  401c38:	bc606836 	ldr	s22, [x1, x0]
  401c3c:	1f155a97 	fmadd	s23, s20, s21, s22
  401c40:	bc206837 	str	s23, [x1, x0]
  401c44:	91001000 	add	x0, x0, #0x4
  401c48:	bc606879 	ldr	s25, [x3, x0]
  401c4c:	bc667918 	ldr	s24, [x8, x6, lsl #2]
  401c50:	bc60683a 	ldr	s26, [x1, x0]
  401c54:	1f196b1b 	fmadd	s27, s24, s25, s26
  401c58:	bc20683b 	str	s27, [x1, x0]
  401c5c:	91001000 	add	x0, x0, #0x4
  401c60:	bc60687d 	ldr	s29, [x3, x0]
  401c64:	bc66791c 	ldr	s28, [x8, x6, lsl #2]
  401c68:	bc60683e 	ldr	s30, [x1, x0]
  401c6c:	1f1d7b9f 	fmadd	s31, s28, s29, s30
  401c70:	bc20683f 	str	s31, [x1, x0]
  401c74:	91001000 	add	x0, x0, #0x4
  401c78:	bc606861 	ldr	s1, [x3, x0]
  401c7c:	bc667902 	ldr	s2, [x8, x6, lsl #2]
  401c80:	bc606820 	ldr	s0, [x1, x0]
  401c84:	1f010043 	fmadd	s3, s2, s1, s0
  401c88:	bc206823 	str	s3, [x1, x0]
  401c8c:	91001000 	add	x0, x0, #0x4
  401c90:	eb00017f 	cmp	x11, x0
  401c94:	54000660 	b.eq	401d60 <_Z13naive_computeiiiPKfiS0_iPfi+0x280>  // b.none
  401c98:	bc606864 	ldr	s4, [x3, x0]
  401c9c:	91001002 	add	x2, x0, #0x4
  401ca0:	bd400086 	ldr	s6, [x4]
  401ca4:	91002019 	add	x25, x0, #0x8
  401ca8:	bc606825 	ldr	s5, [x1, x0]
  401cac:	91003018 	add	x24, x0, #0xc
  401cb0:	91004017 	add	x23, x0, #0x10
  401cb4:	9100500a 	add	x10, x0, #0x14
  401cb8:	1f0414c7 	fmadd	s7, s6, s4, s5
  401cbc:	91006009 	add	x9, x0, #0x18
  401cc0:	91007006 	add	x6, x0, #0x1c
  401cc4:	bc206827 	str	s7, [x1, x0]
  401cc8:	91008000 	add	x0, x0, #0x20
  401ccc:	bc626870 	ldr	s16, [x3, x2]
  401cd0:	bd400092 	ldr	s18, [x4]
  401cd4:	bc626831 	ldr	s17, [x1, x2]
  401cd8:	1f104653 	fmadd	s19, s18, s16, s17
  401cdc:	bc226833 	str	s19, [x1, x2]
  401ce0:	bc796874 	ldr	s20, [x3, x25]
  401ce4:	bd400096 	ldr	s22, [x4]
  401ce8:	bc796835 	ldr	s21, [x1, x25]
  401cec:	1f1456d7 	fmadd	s23, s22, s20, s21
  401cf0:	bc396837 	str	s23, [x1, x25]
  401cf4:	bc786878 	ldr	s24, [x3, x24]
  401cf8:	bd40009a 	ldr	s26, [x4]
  401cfc:	bc786839 	ldr	s25, [x1, x24]
  401d00:	1f18675b 	fmadd	s27, s26, s24, s25
  401d04:	bc38683b 	str	s27, [x1, x24]
  401d08:	bc77687c 	ldr	s28, [x3, x23]
  401d0c:	bd40009e 	ldr	s30, [x4]
  401d10:	bc77683d 	ldr	s29, [x1, x23]
  401d14:	1f1c77df 	fmadd	s31, s30, s28, s29
  401d18:	bc37683f 	str	s31, [x1, x23]
  401d1c:	bc6a6861 	ldr	s1, [x3, x10]
  401d20:	bd400082 	ldr	s2, [x4]
  401d24:	bc6a6820 	ldr	s0, [x1, x10]
  401d28:	1f010043 	fmadd	s3, s2, s1, s0
  401d2c:	bc2a6823 	str	s3, [x1, x10]
  401d30:	bc696864 	ldr	s4, [x3, x9]
  401d34:	bd400086 	ldr	s6, [x4]
  401d38:	bc696825 	ldr	s5, [x1, x9]
  401d3c:	1f0414c7 	fmadd	s7, s6, s4, s5
  401d40:	bc296827 	str	s7, [x1, x9]
  401d44:	bc666870 	ldr	s16, [x3, x6]
  401d48:	bd400092 	ldr	s18, [x4]
  401d4c:	bc666831 	ldr	s17, [x1, x6]
  401d50:	1f104653 	fmadd	s19, s18, s16, s17
  401d54:	bc266833 	str	s19, [x1, x6]
  401d58:	eb00017f 	cmp	x11, x0
  401d5c:	54fff9e1 	b.ne	401c98 <_Z13naive_computeiiiPKfiS0_iPfi+0x1b8>  // b.any
  401d60:	110004a5 	add	w5, w5, #0x1
  401d64:	0b0e00e7 	add	w7, w7, w14
  401d68:	6b0c00bf 	cmp	w5, w12
  401d6c:	54fff121 	b.ne	401b90 <_Z13naive_computeiiiPKfiS0_iPfi+0xb0>  // b.any
  401d70:	11000610 	add	w16, w16, #0x1
  401d74:	0b1e018c 	add	w12, w12, w30
  401d78:	0b1e01ef 	add	w15, w15, w30
  401d7c:	0b160252 	add	w18, w18, w22
  401d80:	6b10023f 	cmp	w17, w16
  401d84:	54ffeda1 	b.ne	401b38 <_Z13naive_computeiiiPKfiS0_iPfi+0x58>  // b.any
  401d88:	a94153f3 	ldp	x19, x20, [sp, #16]
  401d8c:	a94363f7 	ldp	x23, x24, [sp, #48]
  401d90:	f94023f9 	ldr	x25, [sp, #64]
  401d94:	a9425bf5 	ldp	x21, x22, [sp, #32]
  401d98:	a8c57bfd 	ldp	x29, x30, [sp], #80
  401d9c:	d65f03c0 	ret
  401da0:	2a0e03e7 	mov	w7, w14
  401da4:	110005e5 	add	w5, w15, #0x1
  401da8:	7100029f 	cmp	w20, #0x0
  401dac:	54ffef2c 	b.gt	401b90 <_Z13naive_computeiiiPKfiS0_iPfi+0xb0>
  401db0:	0b0e00e7 	add	w7, w7, w14
  401db4:	110004a5 	add	w5, w5, #0x1
  401db8:	7100029f 	cmp	w20, #0x0
  401dbc:	54ffeeac 	b.gt	401b90 <_Z13naive_computeiiiPKfiS0_iPfi+0xb0>
  401dc0:	0b0e00e7 	add	w7, w7, w14
  401dc4:	110004a5 	add	w5, w5, #0x1
  401dc8:	7100029f 	cmp	w20, #0x0
  401dcc:	54ffee2c 	b.gt	401b90 <_Z13naive_computeiiiPKfiS0_iPfi+0xb0>
  401dd0:	0b0e00e7 	add	w7, w7, w14
  401dd4:	110004a5 	add	w5, w5, #0x1
  401dd8:	7100029f 	cmp	w20, #0x0
  401ddc:	54ffedac 	b.gt	401b90 <_Z13naive_computeiiiPKfiS0_iPfi+0xb0>
  401de0:	0b0e00e7 	add	w7, w7, w14
  401de4:	110004a5 	add	w5, w5, #0x1
  401de8:	7100029f 	cmp	w20, #0x0
  401dec:	54ffed2c 	b.gt	401b90 <_Z13naive_computeiiiPKfiS0_iPfi+0xb0>
  401df0:	0b0e00e7 	add	w7, w7, w14
  401df4:	110004a5 	add	w5, w5, #0x1
  401df8:	7100029f 	cmp	w20, #0x0
  401dfc:	54ffecac 	b.gt	401b90 <_Z13naive_computeiiiPKfiS0_iPfi+0xb0>
  401e00:	110004a5 	add	w5, w5, #0x1
  401e04:	0b0e00e7 	add	w7, w7, w14
  401e08:	6b05019f 	cmp	w12, w5
  401e0c:	54fffb20 	b.eq	401d70 <_Z13naive_computeiiiPKfiS0_iPfi+0x290>  // b.none
  401e10:	7100029f 	cmp	w20, #0x0
  401e14:	54ffebec 	b.gt	401b90 <_Z13naive_computeiiiPKfiS0_iPfi+0xb0>
  401e18:	110020a5 	add	w5, w5, #0x8
  401e1c:	0b0e0ce7 	add	w7, w7, w14, lsl #3
  401e20:	6b05019f 	cmp	w12, w5
  401e24:	54ffff61 	b.ne	401e10 <_Z13naive_computeiiiPKfiS0_iPfi+0x330>  // b.any
  401e28:	17ffffd2 	b	401d70 <_Z13naive_computeiiiPKfiS0_iPfi+0x290>
  401e2c:	d503201f 	nop

0000000000401e30 <_Z5cacheiiiiiiiiiPfiS_iS_i>:
  401e30:	b94003ea 	ldr	w10, [sp]
  401e34:	710010ff 	cmp	w7, #0x4
  401e38:	1a9f17eb 	cset	w11, eq  // eq = none
  401e3c:	2a0703e8 	mov	w8, w7
  401e40:	7100415f 	cmp	w10, #0x10
  401e44:	b94013f0 	ldr	w16, [sp, #16]
  401e48:	1a9f17e9 	cset	w9, eq  // eq = none
  401e4c:	7100017f 	cmp	w11, #0x0
  401e50:	f94007e7 	ldr	x7, [sp, #8]
  401e54:	7a401924 	ccmp	w9, #0x0, #0x4, ne  // ne = any
  401e58:	f9400fef 	ldr	x15, [sp, #24]
  401e5c:	f94017ed 	ldr	x13, [sp, #40]
  401e60:	b94023ee 	ldr	w14, [sp, #32]
  401e64:	b94033ec 	ldr	w12, [sp, #48]
  401e68:	540002a1 	b.ne	401ebc <_Z5cacheiiiiiiiiiPfiS_iS_i+0x8c>  // b.any
  401e6c:	7100013f 	cmp	w9, #0x0
  401e70:	7a451900 	ccmp	w8, #0x5, #0x0, ne  // ne = any
  401e74:	540003c0 	b.eq	401eec <_Z5cacheiiiiiiiiiPfiS_iS_i+0xbc>  // b.none
  401e78:	7100017f 	cmp	w11, #0x0
  401e7c:	7a541940 	ccmp	w10, #0x14, #0x0, ne  // ne = any
  401e80:	54000420 	b.eq	401f04 <_Z5cacheiiiiiiiiiPfiS_iS_i+0xd4>  // b.none
  401e84:	7100013f 	cmp	w9, #0x0
  401e88:	7a461900 	ccmp	w8, #0x6, #0x0, ne  // ne = any
  401e8c:	54000240 	b.eq	401ed4 <_Z5cacheiiiiiiiiiPfiS_iS_i+0xa4>  // b.none
  401e90:	7100017f 	cmp	w11, #0x0
  401e94:	7a581940 	ccmp	w10, #0x18, #0x0, ne  // ne = any
  401e98:	540004e0 	b.eq	401f34 <_Z5cacheiiiiiiiiiPfiS_iS_i+0x104>  // b.none
  401e9c:	7100013f 	cmp	w9, #0x0
  401ea0:	7a431900 	ccmp	w8, #0x3, #0x0, ne  // ne = any
  401ea4:	540003c0 	b.eq	401f1c <_Z5cacheiiiiiiiiiPfiS_iS_i+0xec>  // b.none
  401ea8:	2a0a03e2 	mov	w2, w10
  401eac:	2a0803e1 	mov	w1, w8
  401eb0:	b00000e0 	adrp	x0, 41e000 <_Z21register_block_vv_3x4ILi3ELi16EEviPKfS1_Pfi+0xe0>
  401eb4:	91108000 	add	x0, x0, #0x420
  401eb8:	17fffa6e 	b	400870 <printf@plt>
  401ebc:	b90003f0 	str	w16, [sp]
  401ec0:	f90007ef 	str	x15, [sp, #8]
  401ec4:	b90013ee 	str	w14, [sp, #16]
  401ec8:	f9000fed 	str	x13, [sp, #24]
  401ecc:	b90023ec 	str	w12, [sp, #32]
  401ed0:	14001178 	b	4064b0 <_Z8cache_opILi4ELi16EEviiiiiiiPfiS0_iS0_i>
  401ed4:	b90003f0 	str	w16, [sp]
  401ed8:	f90007ef 	str	x15, [sp, #8]
  401edc:	b90013ee 	str	w14, [sp, #16]
  401ee0:	f9000fed 	str	x13, [sp, #24]
  401ee4:	b90023ec 	str	w12, [sp, #32]
  401ee8:	14004636 	b	4137c0 <_Z8cache_opILi6ELi16EEviiiiiiiPfiS0_iS0_i>
  401eec:	b90003f0 	str	w16, [sp]
  401ef0:	f90007ef 	str	x15, [sp, #8]
  401ef4:	b90013ee 	str	w14, [sp, #16]
  401ef8:	f9000fed 	str	x13, [sp, #24]
  401efc:	b90023ec 	str	w12, [sp, #32]
  401f00:	14002370 	b	40acc0 <_Z8cache_opILi5ELi16EEviiiiiiiPfiS0_iS0_i>
  401f04:	b90003f0 	str	w16, [sp]
  401f08:	f90007ef 	str	x15, [sp, #8]
  401f0c:	b90013ee 	str	w14, [sp, #16]
  401f10:	f9000fed 	str	x13, [sp, #24]
  401f14:	b90023ec 	str	w12, [sp, #32]
  401f18:	140033be 	b	40ee10 <_Z8cache_opILi4ELi20EEviiiiiiiPfiS0_iS0_i>
  401f1c:	b90003f0 	str	w16, [sp]
  401f20:	f90007ef 	str	x15, [sp, #8]
  401f24:	b90013ee 	str	w14, [sp, #16]
  401f28:	f9000fed 	str	x13, [sp, #24]
  401f2c:	b90023ec 	str	w12, [sp, #32]
  401f30:	14006954 	b	41c480 <_Z8cache_opILi3ELi16EEviiiiiiiPfiS0_iS0_i>
  401f34:	b90003f0 	str	w16, [sp]
  401f38:	f90007ef 	str	x15, [sp, #8]
  401f3c:	b90013ee 	str	w14, [sp, #16]
  401f40:	f9000fed 	str	x13, [sp, #24]
  401f44:	b90023ec 	str	w12, [sp, #32]
  401f48:	14005696 	b	4179a0 <_Z8cache_opILi4ELi24EEviiiiiiiPfiS0_iS0_i>
  401f4c:	d503201f 	nop

0000000000401f50 <_Z10tail_blockILi4ELi16EEviiiiiiiiPfiS0_iS0_i>:
  401f50:	d10203ff 	sub	sp, sp, #0x80
  401f54:	a9017bfd 	stp	x29, x30, [sp, #16]
  401f58:	910043fd 	add	x29, sp, #0x10
  401f5c:	f94043e9 	ldr	x9, [sp, #128]
  401f60:	a90253f3 	stp	x19, x20, [sp, #32]
  401f64:	b9408beb 	ldr	w11, [sp, #136]
  401f68:	a9035bf5 	stp	x21, x22, [sp, #48]
  401f6c:	2a0603f3 	mov	w19, w6
  401f70:	b940abea 	ldr	w10, [sp, #168]
  401f74:	a90463f7 	stp	x23, x24, [sp, #64]
  401f78:	2a0103f5 	mov	w21, w1
  401f7c:	2a0003f8 	mov	w24, w0
  401f80:	a9056bf9 	stp	x25, x26, [sp, #80]
  401f84:	2a0203f4 	mov	w20, w2
  401f88:	b9409bfa 	ldr	w26, [sp, #152]
  401f8c:	a90673fb 	stp	x27, x28, [sp, #96]
  401f90:	2a0403f7 	mov	w23, w4
  401f94:	2a0503f9 	mov	w25, w5
  401f98:	f9404bfb 	ldr	x27, [sp, #144]
  401f9c:	2a0703f6 	mov	w22, w7
  401fa0:	f94053fc 	ldr	x28, [sp, #160]
  401fa4:	6b0300df 	cmp	w6, w3
  401fa8:	5400018b 	b.lt	401fd8 <_Z10tail_blockILi4ELi16EEviiiiiiiiPfiS0_iS0_i+0x88>  // b.tstop
  401fac:	7100027f 	cmp	w19, #0x0
  401fb0:	7a56c2e4 	ccmp	w23, w22, #0x4, gt
  401fb4:	540003cc 	b.gt	40202c <_Z10tail_blockILi4ELi16EEviiiiiiiiPfiS0_iS0_i+0xdc>
  401fb8:	a9417bfd 	ldp	x29, x30, [sp, #16]
  401fbc:	a94253f3 	ldp	x19, x20, [sp, #32]
  401fc0:	a9435bf5 	ldp	x21, x22, [sp, #48]
  401fc4:	a94463f7 	ldp	x23, x24, [sp, #64]
  401fc8:	a9456bf9 	ldp	x25, x26, [sp, #80]
  401fcc:	a94673fb 	ldp	x27, x28, [sp, #96]
  401fd0:	910203ff 	add	sp, sp, #0x80
  401fd4:	d65f03c0 	ret
  401fd8:	0b0000c8 	add	w8, w6, w0
  401fdc:	1b1a0445 	madd	w5, w2, w26, w1
  401fe0:	4b060060 	sub	w0, w3, w6
  401fe4:	b90003ea 	str	w10, [sp]
  401fe8:	2a0b03e4 	mov	w4, w11
  401fec:	2a1a03e6 	mov	w6, w26
  401ff0:	1b0a0507 	madd	w7, w8, w10, w1
  401ff4:	8b25cb65 	add	x5, x27, w5, sxtw #2
  401ff8:	1b0b0903 	madd	w3, w8, w11, w2
  401ffc:	2a1703e1 	mov	w1, w23
  402000:	2a1903e2 	mov	w2, w25
  402004:	f9003be9 	str	x9, [sp, #112]
  402008:	8b27cb87 	add	x7, x28, w7, sxtw #2
  40200c:	290f2beb 	stp	w11, w10, [sp, #120]
  402010:	8b23c923 	add	x3, x9, w3, sxtw #2
  402014:	97fffeb3 	bl	401ae0 <_Z13naive_computeiiiPKfiS0_iPfi>
  402018:	7100027f 	cmp	w19, #0x0
  40201c:	f9403be9 	ldr	x9, [sp, #112]
  402020:	7a56c2e4 	ccmp	w23, w22, #0x4, gt
  402024:	294f2beb 	ldp	w11, w10, [sp, #120]
  402028:	54fffc8d 	b.le	401fb8 <_Z10tail_blockILi4ELi16EEviiiiiiiiPfiS0_iS0_i+0x68>
  40202c:	0b1602a0 	add	w0, w21, w22
  402030:	1b0b5301 	madd	w1, w24, w11, w20
  402034:	a9417bfd 	ldp	x29, x30, [sp, #16]
  402038:	2a1a03e6 	mov	w6, w26
  40203c:	1b1a028d 	madd	w13, w20, w26, w0
  402040:	2a1903e2 	mov	w2, w25
  402044:	1b0a030c 	madd	w12, w24, w10, w0
  402048:	8b21c923 	add	x3, x9, w1, sxtw #2
  40204c:	a9456bf9 	ldp	x25, x26, [sp, #80]
  402050:	4b1602e1 	sub	w1, w23, w22
  402054:	a9435bf5 	ldp	x21, x22, [sp, #48]
  402058:	2a1303e0 	mov	w0, w19
  40205c:	a94253f3 	ldp	x19, x20, [sp, #32]
  402060:	8b2ccb87 	add	x7, x28, w12, sxtw #2
  402064:	a94463f7 	ldp	x23, x24, [sp, #64]
  402068:	8b2dcb65 	add	x5, x27, w13, sxtw #2
  40206c:	a94673fb 	ldp	x27, x28, [sp, #96]
  402070:	b90083ea 	str	w10, [sp, #128]
  402074:	2a0b03e4 	mov	w4, w11
  402078:	910203ff 	add	sp, sp, #0x80
  40207c:	17fffe99 	b	401ae0 <_Z13naive_computeiiiPKfiS0_iPfi>

0000000000402080 <_Z9cache_kjiILi4ELi16EEviiiiiiPfiS0_iS0_i>:
  402080:	d10743ff 	sub	sp, sp, #0x1d0
  402084:	a9037bfd 	stp	x29, x30, [sp, #48]
  402088:	9100c3fd 	add	x29, sp, #0x30
  40208c:	a90453f3 	stp	x19, x20, [sp, #64]
  402090:	2a0003f3 	mov	w19, w0
  402094:	2a0703f4 	mov	w20, w7
  402098:	a9055bf5 	stp	x21, x22, [sp, #80]
  40209c:	2a0503f5 	mov	w21, w5
  4020a0:	b941dbf6 	ldr	w22, [sp, #472]
  4020a4:	b90107e0 	str	w0, [sp, #260]
  4020a8:	1b057c00 	mul	w0, w0, w5
  4020ac:	f940ebe5 	ldr	x5, [sp, #464]
  4020b0:	a9076bf9 	stp	x25, x26, [sp, #112]
  4020b4:	2a0403fa 	mov	w26, w4
  4020b8:	f940f3f9 	ldr	x25, [sp, #480]
  4020bc:	a90663f7 	stp	x23, x24, [sp, #96]
  4020c0:	2a0203f7 	mov	w23, w2
  4020c4:	b941ebf8 	ldr	w24, [sp, #488]
  4020c8:	a90873fb 	stp	x27, x28, [sp, #128]
  4020cc:	2a0103fb 	mov	w27, w1
  4020d0:	f9005bf9 	str	x25, [sp, #176]
  4020d4:	b900ebe3 	str	w3, [sp, #232]
  4020d8:	f9007fe6 	str	x6, [sp, #248]
  4020dc:	f90087e5 	str	x5, [sp, #264]
  4020e0:	b9011fe7 	str	w7, [sp, #284]
  4020e4:	b9012bf6 	str	w22, [sp, #296]
  4020e8:	b9013be4 	str	w4, [sp, #312]
  4020ec:	b90153e1 	str	w1, [sp, #336]
  4020f0:	937e7c01 	sbfiz	x1, x0, #2, #32
  4020f4:	d2800800 	mov	x0, #0x40                  	// #64
  4020f8:	b9018be2 	str	w2, [sp, #392]
  4020fc:	97fff9b1 	bl	4007c0 <aligned_alloc@plt>
  402100:	f90063e0 	str	x0, [sp, #192]
  402104:	1b157f41 	mul	w1, w26, w21
  402108:	d2800800 	mov	x0, #0x40                  	// #64
  40210c:	937e7c21 	sbfiz	x1, x1, #2, #32
  402110:	97fff9ac 	bl	4007c0 <aligned_alloc@plt>
  402114:	1b1b7e62 	mul	w2, w19, w27
  402118:	aa0003fc 	mov	x28, x0
  40211c:	52800001 	mov	w1, #0x0                   	// #0
  402120:	aa1903e0 	mov	x0, x25
  402124:	937e7c42 	sbfiz	x2, x2, #2, #32
  402128:	97fff9b6 	bl	400800 <memset@plt>
  40212c:	710002ff 	cmp	w23, #0x0
  402130:	54004dcd 	b.le	402ae8 <_Z9cache_kjiILi4ELi16EEviiiiiiPfiS0_iS0_i+0xa68>
  402134:	93407e99 	sxtw	x25, w20
  402138:	b940ebef 	ldr	w15, [sp, #232]
  40213c:	52800183 	mov	w3, #0xc                   	// #12
  402140:	6b1303e4 	negs	w4, w19
  402144:	531e7688 	lsl	w8, w20, #2
  402148:	12000486 	and	w6, w4, #0x3
  40214c:	12000667 	and	w7, w19, #0x3
  402150:	2a1703fe 	mov	w30, w23
  402154:	9b237f2d 	smull	x13, w25, w3
  402158:	900000f7 	adrp	x23, 41e000 <_Z21register_block_vv_3x4ILi3ELi16EEviPKfS1_Pfi+0xe0>
  40215c:	5a8644e9 	csneg	w9, w7, w6, mi  // mi = first
  402160:	93407d0e 	sxtw	x14, w8
  402164:	4b09026b 	sub	w11, w19, w9
  402168:	1b157ed1 	mul	w17, w22, w21
  40216c:	1b187df0 	mul	w16, w15, w24
  402170:	5280001b 	mov	w27, #0x0                   	// #0
  402174:	937d7f2c 	sbfiz	x12, x25, #3, #32
  402178:	937e7ed2 	sbfiz	x18, x22, #2, #32
  40217c:	aa0d03e9 	mov	x9, x13
  402180:	2a1803fa 	mov	w26, w24
  402184:	2a1b03e0 	mov	w0, w27
  402188:	fd004be8 	str	d8, [sp, #144]
  40218c:	fd41eae8 	ldr	d8, [x23, #976]
  402190:	93407eb3 	sxtw	x19, w21
  402194:	f900a7ee 	str	x14, [sp, #328]
  402198:	2a1e03ee 	mov	w14, w30
  40219c:	2a1503e6 	mov	w6, w21
  4021a0:	d2800014 	mov	x20, #0x0                   	// #0
  4021a4:	aa1c03f5 	mov	x21, x28
  4021a8:	531e771c 	lsl	w28, w24, #2
  4021ac:	b900bffc 	str	w28, [sp, #188]
  4021b0:	b90103ff 	str	wzr, [sp, #256]
  4021b4:	b90117f0 	str	w16, [sp, #276]
  4021b8:	b9013feb 	str	w11, [sp, #316]
  4021bc:	b90157f1 	str	w17, [sp, #340]
  4021c0:	f900aff3 	str	x19, [sp, #344]
  4021c4:	b9413ff6 	ldr	w22, [sp, #316]
  4021c8:	6b0601df 	cmp	w14, w6
  4021cc:	1a86d1d7 	csel	w23, w14, w6, le
  4021d0:	710002df 	cmp	w22, #0x0
  4021d4:	5400102d 	b.le	4023d8 <_Z9cache_kjiILi4ELi16EEviiiiiiPfiS0_iS0_i+0x358>
  4021d8:	f94063e7 	ldr	x7, [sp, #192]
  4021dc:	531e76f8 	lsl	w24, w23, #2
  4021e0:	93407ee1 	sxtw	x1, w23
  4021e4:	aa1403e2 	mov	x2, x20
  4021e8:	937e7f04 	sbfiz	x4, x24, #2, #32
  4021ec:	2a1a03fc 	mov	w28, w26
  4021f0:	52800003 	mov	w3, #0x0                   	// #0
  4021f4:	cb0113f6 	neg	x22, x1, lsl #4
  4021f8:	aa0403f3 	mov	x19, x4
  4021fc:	8b0400fb 	add	x27, x7, x4
  402200:	aa0903f8 	mov	x24, x9
  402204:	aa0203fa 	mov	x26, x2
  402208:	a90a4bf5 	stp	x21, x18, [sp, #160]
  40220c:	aa0c03f5 	mov	x21, x12
  402210:	f9006bf4 	str	x20, [sp, #208]
  402214:	aa1903f4 	mov	x20, x25
  402218:	2a0303f9 	mov	w25, w3
  40221c:	b900cbe0 	str	w0, [sp, #200]
  402220:	291b1bee 	stp	w14, w6, [sp, #216]
  402224:	9106c3e1 	add	x1, sp, #0x1b0
  402228:	52800020 	mov	w0, #0x1                   	// #1
  40222c:	97fff981 	bl	400830 <clock_gettime@plt>
  402230:	8b160372 	add	x18, x27, x22
  402234:	710002ff 	cmp	w23, #0x0
  402238:	5400090d 	b.le	402358 <_Z9cache_kjiILi4ELi16EEviiiiiiPfiS0_iS0_i+0x2d8>
  40223c:	cb120365 	sub	x5, x27, x18
  402240:	d37ef746 	lsl	x6, x26, #2
  402244:	d10040a8 	sub	x8, x5, #0x10
  402248:	f9407feb 	ldr	x11, [sp, #248]
  40224c:	d344fd09 	lsr	x9, x8, #4
  402250:	9100052a 	add	x10, x9, #0x1
  402254:	f240054d 	ands	x13, x10, #0x3
  402258:	8b06016c 	add	x12, x11, x6
  40225c:	54000400 	b.eq	4022dc <_Z9cache_kjiILi4ELi16EEviiiiiiPfiS0_iS0_i+0x25c>  // b.none
  402260:	f10005bf 	cmp	x13, #0x1
  402264:	54000280 	b.eq	4022b4 <_Z9cache_kjiILi4ELi16EEviiiiiiPfiS0_iS0_i+0x234>  // b.none
  402268:	f10009bf 	cmp	x13, #0x2
  40226c:	54000140 	b.eq	402294 <_Z9cache_kjiILi4ELi16EEviiiiiiPfiS0_iS0_i+0x214>  // b.none
  402270:	f9407fee 	ldr	x14, [sp, #248]
  402274:	bc747982 	ldr	s2, [x12, x20, lsl #2]
  402278:	bc756981 	ldr	s1, [x12, x21]
  40227c:	bc786980 	ldr	s0, [x12, x24]
  402280:	9100118c 	add	x12, x12, #0x4
  402284:	bc6669c3 	ldr	s3, [x14, x6]
  402288:	2d010241 	stp	s1, s0, [x18, #8]
  40228c:	2d000a43 	stp	s3, s2, [x18]
  402290:	91004252 	add	x18, x18, #0x10
  402294:	bc747984 	ldr	s4, [x12, x20, lsl #2]
  402298:	bc756985 	ldr	s5, [x12, x21]
  40229c:	bc786986 	ldr	s6, [x12, x24]
  4022a0:	9100118c 	add	x12, x12, #0x4
  4022a4:	bc5fc187 	ldur	s7, [x12, #-4]
  4022a8:	2d011a45 	stp	s5, s6, [x18, #8]
  4022ac:	2d001247 	stp	s7, s4, [x18]
  4022b0:	91004252 	add	x18, x18, #0x10
  4022b4:	bc747990 	ldr	s16, [x12, x20, lsl #2]
  4022b8:	bc756991 	ldr	s17, [x12, x21]
  4022bc:	bc786992 	ldr	s18, [x12, x24]
  4022c0:	9100118c 	add	x12, x12, #0x4
  4022c4:	bc5fc193 	ldur	s19, [x12, #-4]
  4022c8:	2d014a51 	stp	s17, s18, [x18, #8]
  4022cc:	2d004253 	stp	s19, s16, [x18]
  4022d0:	91004252 	add	x18, x18, #0x10
  4022d4:	eb1b025f 	cmp	x18, x27
  4022d8:	54000400 	b.eq	402358 <_Z9cache_kjiILi4ELi16EEviiiiiiPfiS0_iS0_i+0x2d8>  // b.none
  4022dc:	9100118f 	add	x15, x12, #0x4
  4022e0:	91002190 	add	x16, x12, #0x8
  4022e4:	91003191 	add	x17, x12, #0xc
  4022e8:	bc747995 	ldr	s21, [x12, x20, lsl #2]
  4022ec:	2d407994 	ldp	s20, s30, [x12]
  4022f0:	9100c25e 	add	x30, x18, #0x30
  4022f4:	2d41099f 	ldp	s31, s2, [x12, #8]
  4022f8:	bc756996 	ldr	s22, [x12, x21]
  4022fc:	bc786997 	ldr	s23, [x12, x24]
  402300:	9100418c 	add	x12, x12, #0x10
  402304:	bc7479f8 	ldr	s24, [x15, x20, lsl #2]
  402308:	bc7569f9 	ldr	s25, [x15, x21]
  40230c:	bc7869fa 	ldr	s26, [x15, x24]
  402310:	bc747a1b 	ldr	s27, [x16, x20, lsl #2]
  402314:	bc756a1c 	ldr	s28, [x16, x21]
  402318:	bc786a1d 	ldr	s29, [x16, x24]
  40231c:	bc747a23 	ldr	s3, [x17, x20, lsl #2]
  402320:	bc756a21 	ldr	s1, [x17, x21]
  402324:	bc786a20 	ldr	s0, [x17, x24]
  402328:	2d005654 	stp	s20, s21, [x18]
  40232c:	2d015e56 	stp	s22, s23, [x18, #8]
  402330:	2d02625e 	stp	s30, s24, [x18, #16]
  402334:	2d036a59 	stp	s25, s26, [x18, #24]
  402338:	2d046e5f 	stp	s31, s27, [x18, #32]
  40233c:	2d05765c 	stp	s28, s29, [x18, #40]
  402340:	91010252 	add	x18, x18, #0x40
  402344:	bc1f0242 	stur	s2, [x18, #-16]
  402348:	2d0087c3 	stp	s3, s1, [x30, #4]
  40234c:	bd000fc0 	str	s0, [x30, #12]
  402350:	eb1b025f 	cmp	x18, x27
  402354:	54fffc41 	b.ne	4022dc <_Z9cache_kjiILi4ELi16EEviiiiiiPfiS0_iS0_i+0x25c>  // b.any
  402358:	910703e1 	add	x1, sp, #0x1c0
  40235c:	52800020 	mov	w0, #0x1                   	// #1
  402360:	97fff934 	bl	400830 <clock_gettime@plt>
  402364:	11001339 	add	w25, w25, #0x4
  402368:	f940dfe3 	ldr	x3, [sp, #440]
  40236c:	d0000160 	adrp	x0, 430000 <puts@GLIBC_2.17>
  402370:	f940e7e1 	ldr	x1, [sp, #456]
  402374:	91022004 	add	x4, x0, #0x88
  402378:	f940dbe5 	ldr	x5, [sp, #432]
  40237c:	cb030027 	sub	x7, x1, x3
  402380:	f940e3e6 	ldr	x6, [sp, #448]
  402384:	9e6200e5 	scvtf	d5, x7
  402388:	fd400084 	ldr	d4, [x4]
  40238c:	8b13037b 	add	x27, x27, x19
  402390:	cb0500c8 	sub	x8, x6, x5
  402394:	b9413fe9 	ldr	w9, [sp, #316]
  402398:	f940a7e2 	ldr	x2, [sp, #328]
  40239c:	9e620106 	scvtf	d6, x8
  4023a0:	1f4818a7 	fmadd	d7, d5, d8, d6
  4023a4:	8b02035a 	add	x26, x26, x2
  4023a8:	1e672890 	fadd	d16, d4, d7
  4023ac:	fd000090 	str	d16, [x4]
  4023b0:	6b19013f 	cmp	w9, w25
  4023b4:	54fff38c 	b.gt	402224 <_Z9cache_kjiILi4ELi16EEviiiiiiPfiS0_iS0_i+0x1a4>
  4023b8:	aa1503ec 	mov	x12, x21
  4023bc:	aa1403f9 	mov	x25, x20
  4023c0:	a94a4bf5 	ldp	x21, x18, [sp, #160]
  4023c4:	aa1803e9 	mov	x9, x24
  4023c8:	f9406bf4 	ldr	x20, [sp, #208]
  4023cc:	2a1c03fa 	mov	w26, w28
  4023d0:	b940cbe0 	ldr	w0, [sp, #200]
  4023d4:	295b1bee 	ldp	w14, w6, [sp, #216]
  4023d8:	b94153f3 	ldr	w19, [sp, #336]
  4023dc:	7100027f 	cmp	w19, #0x0
  4023e0:	540036ad 	b.le	402ab4 <_Z9cache_kjiILi4ELi16EEviiiiiiPfiS0_iS0_i+0xa34>
  4023e4:	aa1403f8 	mov	x24, x20
  4023e8:	b940ebf4 	ldr	w20, [sp, #232]
  4023ec:	510006f6 	sub	w22, w23, #0x1
  4023f0:	a91733f9 	stp	x25, x12, [sp, #368]
  4023f4:	910006dc 	add	x28, x22, #0x1
  4023f8:	b9813bec 	ldrsw	x12, [sp, #312]
  4023fc:	2a0003f6 	mov	w22, w0
  402400:	1b177e8a 	mul	w10, w20, w23
  402404:	937a7ef9 	sbfiz	x25, x23, #6, #32
  402408:	aa1203fb 	mov	x27, x18
  40240c:	531e76ef 	lsl	w15, w23, #2
  402410:	93407c12 	sxtw	x18, w0
  402414:	d000016d 	adrp	x13, 430000 <puts@GLIBC_2.17>
  402418:	910221ab 	add	x11, x13, #0x88
  40241c:	f90067ff 	str	xzr, [sp, #200]
  402420:	b900dbef 	str	w15, [sp, #216]
  402424:	b900f7ff 	str	wzr, [sp, #244]
  402428:	b90113ea 	str	w10, [sp, #272]
  40242c:	b9012ff3 	str	w19, [sp, #300]
  402430:	f9009bf2 	str	x18, [sp, #304]
  402434:	f900a3ec 	str	x12, [sp, #320]
  402438:	f900c3e9 	str	x9, [sp, #384]
  40243c:	b9018fee 	str	w14, [sp, #396]
  402440:	d37ae78e 	lsl	x14, x28, #6
  402444:	a9163beb 	stp	x11, x14, [sp, #352]
  402448:	b901a3e6 	str	w6, [sp, #416]
  40244c:	b9412ff0 	ldr	w16, [sp, #300]
  402450:	9106c3e1 	add	x1, sp, #0x1b0
  402454:	b9413bf1 	ldr	w17, [sp, #312]
  402458:	52800020 	mov	w0, #0x1                   	// #1
  40245c:	6b11021f 	cmp	w16, w17
  402460:	1a91d21e 	csel	w30, w16, w17, le
  402464:	b9011bfe 	str	w30, [sp, #280]
  402468:	6b1e03e2 	negs	w2, w30
  40246c:	12000fc4 	and	w4, w30, #0xf
  402470:	12000c43 	and	w3, w2, #0xf
  402474:	5a834487 	csneg	w7, w4, w3, mi  // mi = first
  402478:	4b0703d4 	sub	w20, w30, w7
  40247c:	97fff8ed 	bl	400830 <clock_gettime@plt>
  402480:	7100029f 	cmp	w20, #0x0
  402484:	5400100d 	b.le	402684 <_Z9cache_kjiILi4ELi16EEviiiiiiPfiS0_iS0_i+0x604>
  402488:	f94087e1 	ldr	x1, [sp, #264]
  40248c:	aa1503e5 	mov	x5, x21
  402490:	f9409be0 	ldr	x0, [sp, #304]
  402494:	d2800007 	mov	x7, #0x0                   	// #0
  402498:	f940b7ec 	ldr	x12, [sp, #360]
  40249c:	8b000826 	add	x6, x1, x0, lsl #2
  4024a0:	710002ff 	cmp	w23, #0x0
  4024a4:	54000e8d 	b.le	402674 <_Z9cache_kjiILi4ELi16EEviiiiiiPfiS0_iS0_i+0x5f4>
  4024a8:	d1010328 	sub	x8, x25, #0x40
  4024ac:	8b1900b3 	add	x19, x5, x25
  4024b0:	aa0603ed 	mov	x13, x6
  4024b4:	aa0503ee 	mov	x14, x5
  4024b8:	d346fd09 	lsr	x9, x8, #6
  4024bc:	9100053c 	add	x28, x9, #0x1
  4024c0:	f2400b8a 	ands	x10, x28, #0x7
  4024c4:	54000720 	b.eq	4025a8 <_Z9cache_kjiILi4ELi16EEviiiiiiPfiS0_iS0_i+0x528>  // b.none
  4024c8:	f100055f 	cmp	x10, #0x1
  4024cc:	540005e0 	b.eq	402588 <_Z9cache_kjiILi4ELi16EEviiiiiiPfiS0_iS0_i+0x508>  // b.none
  4024d0:	f100095f 	cmp	x10, #0x2
  4024d4:	540004e0 	b.eq	402570 <_Z9cache_kjiILi4ELi16EEviiiiiiPfiS0_iS0_i+0x4f0>  // b.none
  4024d8:	f1000d5f 	cmp	x10, #0x3
  4024dc:	540003e0 	b.eq	402558 <_Z9cache_kjiILi4ELi16EEviiiiiiPfiS0_iS0_i+0x4d8>  // b.none
  4024e0:	f100115f 	cmp	x10, #0x4
  4024e4:	540002e0 	b.eq	402540 <_Z9cache_kjiILi4ELi16EEviiiiiiPfiS0_iS0_i+0x4c0>  // b.none
  4024e8:	f100155f 	cmp	x10, #0x5
  4024ec:	540001e0 	b.eq	402528 <_Z9cache_kjiILi4ELi16EEviiiiiiPfiS0_iS0_i+0x4a8>  // b.none
  4024f0:	f100195f 	cmp	x10, #0x6
  4024f4:	540000e0 	b.eq	402510 <_Z9cache_kjiILi4ELi16EEviiiiiiPfiS0_iS0_i+0x490>  // b.none
  4024f8:	ad4048d1 	ldp	q17, q18, [x6]
  4024fc:	910100ae 	add	x14, x5, #0x40
  402500:	8b1b00cd 	add	x13, x6, x27
  402504:	ad0048b1 	stp	q17, q18, [x5]
  402508:	ad4154d3 	ldp	q19, q21, [x6, #32]
  40250c:	ad0154b3 	stp	q19, q21, [x5, #32]
  402510:	ad405db6 	ldp	q22, q23, [x13]
  402514:	ad005dd6 	stp	q22, q23, [x14]
  402518:	ad4165b8 	ldp	q24, q25, [x13, #32]
  40251c:	8b1b01ad 	add	x13, x13, x27
  402520:	ad0165d8 	stp	q24, q25, [x14, #32]
  402524:	910101ce 	add	x14, x14, #0x40
  402528:	ad406dba 	ldp	q26, q27, [x13]
  40252c:	ad006dda 	stp	q26, q27, [x14]
  402530:	ad4175bc 	ldp	q28, q29, [x13, #32]
  402534:	8b1b01ad 	add	x13, x13, x27
  402538:	ad0175dc 	stp	q28, q29, [x14, #32]
  40253c:	910101ce 	add	x14, x14, #0x40
  402540:	ad4079b4 	ldp	q20, q30, [x13]
  402544:	ad0079d4 	stp	q20, q30, [x14]
  402548:	ad4109bf 	ldp	q31, q2, [x13, #32]
  40254c:	8b1b01ad 	add	x13, x13, x27
  402550:	ad0109df 	stp	q31, q2, [x14, #32]
  402554:	910101ce 	add	x14, x14, #0x40
  402558:	ad4005a3 	ldp	q3, q1, [x13]
  40255c:	ad0005c3 	stp	q3, q1, [x14]
  402560:	ad4111a0 	ldp	q0, q4, [x13, #32]
  402564:	8b1b01ad 	add	x13, x13, x27
  402568:	ad0111c0 	stp	q0, q4, [x14, #32]
  40256c:	910101ce 	add	x14, x14, #0x40
  402570:	ad4019a5 	ldp	q5, q6, [x13]
  402574:	ad0019c5 	stp	q5, q6, [x14]
  402578:	ad4141a7 	ldp	q7, q16, [x13, #32]
  40257c:	8b1b01ad 	add	x13, x13, x27
  402580:	ad0141c7 	stp	q7, q16, [x14, #32]
  402584:	910101ce 	add	x14, x14, #0x40
  402588:	ad4049b1 	ldp	q17, q18, [x13]
  40258c:	ad0049d1 	stp	q17, q18, [x14]
  402590:	ad4155b3 	ldp	q19, q21, [x13, #32]
  402594:	8b1b01ad 	add	x13, x13, x27
  402598:	ad0155d3 	stp	q19, q21, [x14, #32]
  40259c:	910101ce 	add	x14, x14, #0x40
  4025a0:	eb0e027f 	cmp	x19, x14
  4025a4:	54000660 	b.eq	402670 <_Z9cache_kjiILi4ELi16EEviiiiiiPfiS0_iS0_i+0x5f0>  // b.none
  4025a8:	ad405db6 	ldp	q22, q23, [x13]
  4025ac:	8b1b01ab 	add	x11, x13, x27
  4025b0:	910101d2 	add	x18, x14, #0x40
  4025b4:	8b1b016f 	add	x15, x11, x27
  4025b8:	910201d0 	add	x16, x14, #0x80
  4025bc:	8b1b01f1 	add	x17, x15, x27
  4025c0:	ad005dd6 	stp	q22, q23, [x14]
  4025c4:	910301de 	add	x30, x14, #0xc0
  4025c8:	8b1b0222 	add	x2, x17, x27
  4025cc:	ad4165b8 	ldp	q24, q25, [x13, #32]
  4025d0:	910401c3 	add	x3, x14, #0x100
  4025d4:	8b1b0041 	add	x1, x2, x27
  4025d8:	910501c0 	add	x0, x14, #0x140
  4025dc:	8b1b0024 	add	x4, x1, x27
  4025e0:	910601c9 	add	x9, x14, #0x180
  4025e4:	ad0165d8 	stp	q24, q25, [x14, #32]
  4025e8:	8b1b009c 	add	x28, x4, x27
  4025ec:	910701c8 	add	x8, x14, #0x1c0
  4025f0:	ad406d7a 	ldp	q26, q27, [x11]
  4025f4:	910801ce 	add	x14, x14, #0x200
  4025f8:	8b1b038d 	add	x13, x28, x27
  4025fc:	ad006e5a 	stp	q26, q27, [x18]
  402600:	ad41757c 	ldp	q28, q29, [x11, #32]
  402604:	ad01765c 	stp	q28, q29, [x18, #32]
  402608:	ad4079f4 	ldp	q20, q30, [x15]
  40260c:	ad007a14 	stp	q20, q30, [x16]
  402610:	ad4109ff 	ldp	q31, q2, [x15, #32]
  402614:	ad010a1f 	stp	q31, q2, [x16, #32]
  402618:	ad400623 	ldp	q3, q1, [x17]
  40261c:	ad0007c3 	stp	q3, q1, [x30]
  402620:	ad411220 	ldp	q0, q4, [x17, #32]
  402624:	ad0113c0 	stp	q0, q4, [x30, #32]
  402628:	ad401845 	ldp	q5, q6, [x2]
  40262c:	ad001865 	stp	q5, q6, [x3]
  402630:	ad414047 	ldp	q7, q16, [x2, #32]
  402634:	ad014067 	stp	q7, q16, [x3, #32]
  402638:	ad404831 	ldp	q17, q18, [x1]
  40263c:	ad004811 	stp	q17, q18, [x0]
  402640:	ad415433 	ldp	q19, q21, [x1, #32]
  402644:	ad015413 	stp	q19, q21, [x0, #32]
  402648:	ad405c96 	ldp	q22, q23, [x4]
  40264c:	ad005d36 	stp	q22, q23, [x9]
  402650:	ad416498 	ldp	q24, q25, [x4, #32]
  402654:	ad016538 	stp	q24, q25, [x9, #32]
  402658:	ad406f9a 	ldp	q26, q27, [x28]
  40265c:	ad006d1a 	stp	q26, q27, [x8]
  402660:	ad41779c 	ldp	q28, q29, [x28, #32]
  402664:	ad01751c 	stp	q28, q29, [x8, #32]
  402668:	eb0e027f 	cmp	x19, x14
  40266c:	54fff9e1 	b.ne	4025a8 <_Z9cache_kjiILi4ELi16EEviiiiiiPfiS0_iS0_i+0x528>  // b.any
  402670:	8b0c00a5 	add	x5, x5, x12
  402674:	910040e7 	add	x7, x7, #0x10
  402678:	910100c6 	add	x6, x6, #0x40
  40267c:	6b07029f 	cmp	w20, w7
  402680:	54fff10c 	b.gt	4024a0 <_Z9cache_kjiILi4ELi16EEviiiiiiPfiS0_iS0_i+0x420>
  402684:	910703e1 	add	x1, sp, #0x1c0
  402688:	52800020 	mov	w0, #0x1                   	// #1
  40268c:	97fff869 	bl	400830 <clock_gettime@plt>
  402690:	a95b37ea 	ldp	x10, x13, [sp, #432]
  402694:	f940e7ee 	ldr	x14, [sp, #456]
  402698:	f940e3f2 	ldr	x18, [sp, #448]
  40269c:	cb0d01cc 	sub	x12, x14, x13
  4026a0:	b94107eb 	ldr	w11, [sp, #260]
  4026a4:	cb0a024f 	sub	x15, x18, x10
  4026a8:	9e620194 	scvtf	d20, x12
  4026ac:	9e6201ff 	scvtf	d31, x15
  4026b0:	f940b3f3 	ldr	x19, [sp, #352]
  4026b4:	1f487e82 	fmadd	d2, d20, d8, d31
  4026b8:	fd40027e 	ldr	d30, [x19]
  4026bc:	1e622bc3 	fadd	d3, d30, d2
  4026c0:	fd000263 	str	d3, [x19]
  4026c4:	7100017f 	cmp	w11, #0x0
  4026c8:	54001c6d 	b.le	402a54 <_Z9cache_kjiILi4ELi16EEviiiiiiPfiS0_iS0_i+0x9d4>
  4026cc:	d0000170 	adrp	x16, 430000 <puts@GLIBC_2.17>
  4026d0:	5280001e 	mov	w30, #0x0                   	// #0
  4026d4:	91020211 	add	x17, x16, #0x80
  4026d8:	291bffeb 	stp	w11, wzr, [sp, #220]
  4026dc:	b900e7ff 	str	wzr, [sp, #228]
  4026e0:	b900effe 	str	w30, [sp, #236]
  4026e4:	f90093f1 	str	x17, [sp, #288]
  4026e8:	a91967fb 	stp	x27, x25, [sp, #400]
  4026ec:	b901a7f6 	str	w22, [sp, #420]
  4026f0:	f900d7f8 	str	x24, [sp, #424]
  4026f4:	b940dff8 	ldr	w24, [sp, #220]
  4026f8:	9106c3e1 	add	x1, sp, #0x1b0
  4026fc:	b940ebf6 	ldr	w22, [sp, #232]
  402700:	52800020 	mov	w0, #0x1                   	// #1
  402704:	5280001b 	mov	w27, #0x0                   	// #0
  402708:	6b16031f 	cmp	w24, w22
  40270c:	1a96d316 	csel	w22, w24, w22, le
  402710:	6b1603f9 	negs	w25, w22
  402714:	120006c2 	and	w2, w22, #0x3
  402718:	12000723 	and	w3, w25, #0x3
  40271c:	5a834444 	csneg	w4, w2, w3, mi  // mi = first
  402720:	4b0402dc 	sub	w28, w22, w4
  402724:	97fff843 	bl	400830 <clock_gettime@plt>
  402728:	295c03e1 	ldp	w1, w0, [sp, #224]
  40272c:	7100039f 	cmp	w28, #0x0
  402730:	5400122d 	b.le	402974 <_Z9cache_kjiILi4ELi16EEviiiiiiPfiS0_iS0_i+0x8f4>
  402734:	2a0003f8 	mov	w24, w0
  402738:	b900a3e1 	str	w1, [sp, #160]
  40273c:	b900abfc 	str	w28, [sp, #168]
  402740:	b900f3f6 	str	w22, [sp, #240]
  402744:	d503201f 	nop
  402748:	7100029f 	cmp	w20, #0x0
  40274c:	54000fcd 	b.le	402944 <_Z9cache_kjiILi4ELi16EEviiiiiiPfiS0_iS0_i+0x8c4>
  402750:	a94c1be8 	ldp	x8, x6, [sp, #192]
  402754:	51000689 	sub	w9, w20, #0x1
  402758:	f9405bed 	ldr	x13, [sp, #176]
  40275c:	2a1a03e7 	mov	w7, w26
  402760:	b940a3f3 	ldr	w19, [sp, #160]
  402764:	d3441536 	ubfx	x22, x9, #4, #2
  402768:	aa1503e5 	mov	x5, x21
  40276c:	2a1703e3 	mov	w3, w23
  402770:	8b38c0ca 	add	x10, x6, w24, sxtw
  402774:	52800002 	mov	w2, #0x0                   	// #0
  402778:	8b33c913 	add	x19, x8, w19, sxtw #2
  40277c:	52800201 	mov	w1, #0x10                  	// #16
  402780:	8b0a09b9 	add	x25, x13, x10, lsl #2
  402784:	aa1303e4 	mov	x4, x19
  402788:	aa1903e6 	mov	x6, x25
  40278c:	52800080 	mov	w0, #0x4                   	// #4
  402790:	94006780 	bl	41c590 <_Z14register_blockiiiiPKfS0_Pfi>
  402794:	91010339 	add	x25, x25, #0x40
  402798:	5280021c 	mov	w28, #0x10                  	// #16
  40279c:	6b1c029f 	cmp	w20, w28
  4027a0:	54000d2d 	b.le	402944 <_Z9cache_kjiILi4ELi16EEviiiiiiPfiS0_iS0_i+0x8c4>
  4027a4:	340005f6 	cbz	w22, 402860 <_Z9cache_kjiILi4ELi16EEviiiiiiPfiS0_iS0_i+0x7e0>
  4027a8:	710006df 	cmp	w22, #0x1
  4027ac:	540003a0 	b.eq	402820 <_Z9cache_kjiILi4ELi16EEviiiiiiPfiS0_iS0_i+0x7a0>  // b.none
  4027b0:	71000adf 	cmp	w22, #0x2
  4027b4:	540001a0 	b.eq	4027e8 <_Z9cache_kjiILi4ELi16EEviiiiiiPfiS0_iS0_i+0x768>  // b.none
  4027b8:	aa1903e6 	mov	x6, x25
  4027bc:	91010339 	add	x25, x25, #0x40
  4027c0:	2a1c03e1 	mov	w1, w28
  4027c4:	531c6ee5 	lsl	w5, w23, #4
  4027c8:	5280041c 	mov	w28, #0x20                  	// #32
  4027cc:	2a1a03e7 	mov	w7, w26
  4027d0:	8b25caa5 	add	x5, x21, w5, sxtw #2
  4027d4:	aa1303e4 	mov	x4, x19
  4027d8:	2a1703e3 	mov	w3, w23
  4027dc:	52800002 	mov	w2, #0x0                   	// #0
  4027e0:	52800080 	mov	w0, #0x4                   	// #4
  4027e4:	9400676b 	bl	41c590 <_Z14register_blockiiiiPKfS0_Pfi>
  4027e8:	13047f8e 	asr	w14, w28, #4
  4027ec:	aa1903e6 	mov	x6, x25
  4027f0:	1100439c 	add	w28, w28, #0x10
  4027f4:	91010339 	add	x25, x25, #0x40
  4027f8:	2a1a03e7 	mov	w7, w26
  4027fc:	aa1303e4 	mov	x4, x19
  402800:	1b177dcc 	mul	w12, w14, w23
  402804:	2a1703e3 	mov	w3, w23
  402808:	52800002 	mov	w2, #0x0                   	// #0
  40280c:	52800201 	mov	w1, #0x10                  	// #16
  402810:	52800080 	mov	w0, #0x4                   	// #4
  402814:	531c6d8b 	lsl	w11, w12, #4
  402818:	8b2bcaa5 	add	x5, x21, w11, sxtw #2
  40281c:	9400675d 	bl	41c590 <_Z14register_blockiiiiPKfS0_Pfi>
  402820:	13047f92 	asr	w18, w28, #4
  402824:	aa1903e6 	mov	x6, x25
  402828:	2a1a03e7 	mov	w7, w26
  40282c:	aa1303e4 	mov	x4, x19
  402830:	2a1703e3 	mov	w3, w23
  402834:	52800002 	mov	w2, #0x0                   	// #0
  402838:	1b177e4f 	mul	w15, w18, w23
  40283c:	52800201 	mov	w1, #0x10                  	// #16
  402840:	52800080 	mov	w0, #0x4                   	// #4
  402844:	1100439c 	add	w28, w28, #0x10
  402848:	91010339 	add	x25, x25, #0x40
  40284c:	531c6df0 	lsl	w16, w15, #4
  402850:	8b30caa5 	add	x5, x21, w16, sxtw #2
  402854:	9400674f 	bl	41c590 <_Z14register_blockiiiiPKfS0_Pfi>
  402858:	6b1c029f 	cmp	w20, w28
  40285c:	5400074d 	b.le	402944 <_Z9cache_kjiILi4ELi16EEviiiiiiPfiS0_iS0_i+0x8c4>
  402860:	b900d3f8 	str	w24, [sp, #208]
  402864:	13047f91 	asr	w17, w28, #4
  402868:	11004396 	add	w22, w28, #0x10
  40286c:	aa1903e6 	mov	x6, x25
  402870:	2a1a03e7 	mov	w7, w26
  402874:	aa1303e4 	mov	x4, x19
  402878:	2a1703e3 	mov	w3, w23
  40287c:	1b177e3e 	mul	w30, w17, w23
  402880:	52800002 	mov	w2, #0x0                   	// #0
  402884:	52800201 	mov	w1, #0x10                  	// #16
  402888:	52800080 	mov	w0, #0x4                   	// #4
  40288c:	531c6fd8 	lsl	w24, w30, #4
  402890:	8b38caa5 	add	x5, x21, w24, sxtw #2
  402894:	9400673f 	bl	41c590 <_Z14register_blockiiiiPKfS0_Pfi>
  402898:	13047ec9 	asr	w9, w22, #4
  40289c:	91010326 	add	x6, x25, #0x40
  4028a0:	2a1a03e7 	mov	w7, w26
  4028a4:	aa1303e4 	mov	x4, x19
  4028a8:	2a1703e3 	mov	w3, w23
  4028ac:	52800002 	mov	w2, #0x0                   	// #0
  4028b0:	1b177d28 	mul	w8, w9, w23
  4028b4:	52800201 	mov	w1, #0x10                  	// #16
  4028b8:	52800080 	mov	w0, #0x4                   	// #4
  4028bc:	531c6d0a 	lsl	w10, w8, #4
  4028c0:	8b2acaa5 	add	x5, x21, w10, sxtw #2
  4028c4:	94006733 	bl	41c590 <_Z14register_blockiiiiPKfS0_Pfi>
  4028c8:	110042c2 	add	w2, w22, #0x10
  4028cc:	91020326 	add	x6, x25, #0x80
  4028d0:	2a1a03e7 	mov	w7, w26
  4028d4:	aa1303e4 	mov	x4, x19
  4028d8:	13047c4d 	asr	w13, w2, #4
  4028dc:	2a1703e3 	mov	w3, w23
  4028e0:	52800002 	mov	w2, #0x0                   	// #0
  4028e4:	52800201 	mov	w1, #0x10                  	// #16
  4028e8:	52800080 	mov	w0, #0x4                   	// #4
  4028ec:	1b177da5 	mul	w5, w13, w23
  4028f0:	531c6cae 	lsl	w14, w5, #4
  4028f4:	8b2ecaa5 	add	x5, x21, w14, sxtw #2
  4028f8:	94006726 	bl	41c590 <_Z14register_blockiiiiPKfS0_Pfi>
  4028fc:	1100c383 	add	w3, w28, #0x30
  402900:	91030326 	add	x6, x25, #0xc0
  402904:	2a1a03e7 	mov	w7, w26
  402908:	aa1303e4 	mov	x4, x19
  40290c:	13047c6c 	asr	w12, w3, #4
  402910:	52800002 	mov	w2, #0x0                   	// #0
  402914:	2a1703e3 	mov	w3, w23
  402918:	52800201 	mov	w1, #0x10                  	// #16
  40291c:	52800080 	mov	w0, #0x4                   	// #4
  402920:	1101039c 	add	w28, w28, #0x40
  402924:	1b177d8b 	mul	w11, w12, w23
  402928:	91040339 	add	x25, x25, #0x100
  40292c:	531c6d72 	lsl	w18, w11, #4
  402930:	8b32caa5 	add	x5, x21, w18, sxtw #2
  402934:	94006717 	bl	41c590 <_Z14register_blockiiiiPKfS0_Pfi>
  402938:	6b1c029f 	cmp	w20, w28
  40293c:	54fff94c 	b.gt	402864 <_Z9cache_kjiILi4ELi16EEviiiiiiPfiS0_iS0_i+0x7e4>
  402940:	b940d3f8 	ldr	w24, [sp, #208]
  402944:	b940a3e1 	ldr	w1, [sp, #160]
  402948:	1100137b 	add	w27, w27, #0x4
  40294c:	b940dbe4 	ldr	w4, [sp, #216]
  402950:	b940bfe7 	ldr	w7, [sp, #188]
  402954:	b940abf3 	ldr	w19, [sp, #168]
  402958:	0b040020 	add	w0, w1, w4
  40295c:	b900a3e0 	str	w0, [sp, #160]
  402960:	0b070318 	add	w24, w24, w7
  402964:	6b1b027f 	cmp	w19, w27
  402968:	54ffef0c 	b.gt	402748 <_Z9cache_kjiILi4ELi16EEviiiiiiPfiS0_iS0_i+0x6c8>
  40296c:	b940abfc 	ldr	w28, [sp, #168]
  402970:	b940f3f6 	ldr	w22, [sp, #240]
  402974:	910703e1 	add	x1, sp, #0x1c0
  402978:	52800020 	mov	w0, #0x1                   	// #1
  40297c:	97fff7ad 	bl	400830 <clock_gettime@plt>
  402980:	b940eff3 	ldr	w19, [sp, #236]
  402984:	a95b63f9 	ldp	x25, x24, [sp, #432]
  402988:	2a1c03e6 	mov	w6, w28
  40298c:	f940e7ee 	ldr	x14, [sp, #456]
  402990:	2a1603e3 	mov	w3, w22
  402994:	f940e3e9 	ldr	x9, [sp, #448]
  402998:	2a1403e7 	mov	w7, w20
  40299c:	cb1801cc 	sub	x12, x14, x24
  4029a0:	b9411fe2 	ldr	w2, [sp, #284]
  4029a4:	cb190128 	sub	x8, x9, x25
  4029a8:	b9411be4 	ldr	w4, [sp, #280]
  4029ac:	9e620181 	scvtf	d1, x12
  4029b0:	b940f7e1 	ldr	w1, [sp, #244]
  4029b4:	9e620100 	scvtf	d0, x8
  4029b8:	b9412bea 	ldr	w10, [sp, #296]
  4029bc:	f94093ef 	ldr	x15, [sp, #288]
  4029c0:	2a1703e5 	mov	w5, w23
  4029c4:	1f480025 	fmadd	d5, d1, d8, d0
  4029c8:	2a1303e0 	mov	w0, w19
  4029cc:	f9405beb 	ldr	x11, [sp, #176]
  4029d0:	fd4001e4 	ldr	d4, [x15]
  4029d4:	f94087ed 	ldr	x13, [sp, #264]
  4029d8:	b9000be2 	str	w2, [sp, #8]
  4029dc:	b94103e2 	ldr	w2, [sp, #256]
  4029e0:	f9407ffb 	ldr	x27, [sp, #248]
  4029e4:	1e652886 	fadd	d6, d4, d5
  4029e8:	f90003fb 	str	x27, [sp]
  4029ec:	f9000bed 	str	x13, [sp, #16]
  4029f0:	b9001bea 	str	w10, [sp, #24]
  4029f4:	f90013eb 	str	x11, [sp, #32]
  4029f8:	b9002bfa 	str	w26, [sp, #40]
  4029fc:	fd0001e6 	str	d6, [x15]
  402a00:	97fffd54 	bl	401f50 <_Z10tail_blockILi4ELi16EEviiiiiiiiPfiS0_iS0_i>
  402a04:	b940dfe6 	ldr	w6, [sp, #220]
  402a08:	b940ebe5 	ldr	w5, [sp, #232]
  402a0c:	b940e7e4 	ldr	w4, [sp, #228]
  402a10:	b940e3fc 	ldr	w28, [sp, #224]
  402a14:	0b050263 	add	w3, w19, w5
  402a18:	b94117e7 	ldr	w7, [sp, #276]
  402a1c:	4b0500d2 	sub	w18, w6, w5
  402a20:	b94113e0 	ldr	w0, [sp, #272]
  402a24:	b94107fb 	ldr	w27, [sp, #260]
  402a28:	0b070081 	add	w1, w4, w7
  402a2c:	0b000396 	add	w22, w28, w0
  402a30:	b900dff2 	str	w18, [sp, #220]
  402a34:	b900e3f6 	str	w22, [sp, #224]
  402a38:	b900e7e1 	str	w1, [sp, #228]
  402a3c:	b900efe3 	str	w3, [sp, #236]
  402a40:	6b03037f 	cmp	w27, w3
  402a44:	54ffe58c 	b.gt	4026f4 <_Z9cache_kjiILi4ELi16EEviiiiiiPfiS0_iS0_i+0x674>
  402a48:	a95967fb 	ldp	x27, x25, [sp, #400]
  402a4c:	f940d7f8 	ldr	x24, [sp, #424]
  402a50:	b941a7f6 	ldr	w22, [sp, #420]
  402a54:	f94067e9 	ldr	x9, [sp, #200]
  402a58:	f9409bf3 	ldr	x19, [sp, #304]
  402a5c:	f940a3e8 	ldr	x8, [sp, #320]
  402a60:	b940f7f4 	ldr	w20, [sp, #244]
  402a64:	b9412ff0 	ldr	w16, [sp, #300]
  402a68:	8b08012a 	add	x10, x9, x8
  402a6c:	b9413bf1 	ldr	w17, [sp, #312]
  402a70:	8b080262 	add	x2, x19, x8
  402a74:	b94153ed 	ldr	w13, [sp, #336]
  402a78:	0b11029e 	add	w30, w20, w17
  402a7c:	4b11020f 	sub	w15, w16, w17
  402a80:	f90067ea 	str	x10, [sp, #200]
  402a84:	b900f7fe 	str	w30, [sp, #244]
  402a88:	b9012fef 	str	w15, [sp, #300]
  402a8c:	f9009be2 	str	x2, [sp, #304]
  402a90:	6b1e01bf 	cmp	w13, w30
  402a94:	54ffcdcc 	b.gt	40244c <_Z9cache_kjiILi4ELi16EEviiiiiiPfiS0_iS0_i+0x3cc>
  402a98:	a95733f9 	ldp	x25, x12, [sp, #368]
  402a9c:	aa1b03f2 	mov	x18, x27
  402aa0:	f940c3e9 	ldr	x9, [sp, #384]
  402aa4:	2a1603e0 	mov	w0, w22
  402aa8:	b9418fee 	ldr	w14, [sp, #396]
  402aac:	aa1803f4 	mov	x20, x24
  402ab0:	b941a3e6 	ldr	w6, [sp, #416]
  402ab4:	f940afe3 	ldr	x3, [sp, #344]
  402ab8:	4b0601ce 	sub	w14, w14, w6
  402abc:	b94103f7 	ldr	w23, [sp, #256]
  402ac0:	b94157eb 	ldr	w11, [sp, #340]
  402ac4:	8b030294 	add	x20, x20, x3
  402ac8:	b9418be7 	ldr	w7, [sp, #392]
  402acc:	0b0602e5 	add	w5, w23, w6
  402ad0:	b90103e5 	str	w5, [sp, #256]
  402ad4:	0b0b0000 	add	w0, w0, w11
  402ad8:	6b0500ff 	cmp	w7, w5
  402adc:	54ffb74c 	b.gt	4021c4 <_Z9cache_kjiILi4ELi16EEviiiiiiPfiS0_iS0_i+0x144>
  402ae0:	fd404be8 	ldr	d8, [sp, #144]
  402ae4:	aa1503fc 	mov	x28, x21
  402ae8:	f94063e0 	ldr	x0, [sp, #192]
  402aec:	97fff73d 	bl	4007e0 <free@plt>
  402af0:	a9437bfd 	ldp	x29, x30, [sp, #48]
  402af4:	aa1c03e0 	mov	x0, x28
  402af8:	a94453f3 	ldp	x19, x20, [sp, #64]
  402afc:	a9455bf5 	ldp	x21, x22, [sp, #80]
  402b00:	a94663f7 	ldp	x23, x24, [sp, #96]
  402b04:	a9476bf9 	ldp	x25, x26, [sp, #112]
  402b08:	a94873fb 	ldp	x27, x28, [sp, #128]
  402b0c:	910743ff 	add	sp, sp, #0x1d0
  402b10:	17fff734 	b	4007e0 <free@plt>
  402b14:	d503201f 	nop
  402b18:	d503201f 	nop
  402b1c:	d503201f 	nop

0000000000402b20 <_Z9cache_kijILi4ELi16EEviiiiiiPfiS0_iS0_i>:
  402b20:	d10783ff 	sub	sp, sp, #0x1e0
  402b24:	2a0303e8 	mov	w8, w3
  402b28:	1b057c63 	mul	w3, w3, w5
  402b2c:	a9037bfd 	stp	x29, x30, [sp, #48]
  402b30:	9100c3fd 	add	x29, sp, #0x30
  402b34:	a90453f3 	stp	x19, x20, [sp, #64]
  402b38:	2a0503f3 	mov	w19, w5
  402b3c:	b941ebf4 	ldr	w20, [sp, #488]
  402b40:	f940f3e5 	ldr	x5, [sp, #480]
  402b44:	a9055bf5 	stp	x21, x22, [sp, #80]
  402b48:	2a0403f6 	mov	w22, w4
  402b4c:	f940fbf5 	ldr	x21, [sp, #496]
  402b50:	a90663f7 	stp	x23, x24, [sp, #96]
  402b54:	2a0003f7 	mov	w23, w0
  402b58:	2a0103f8 	mov	w24, w1
  402b5c:	a9076bf9 	stp	x25, x26, [sp, #112]
  402b60:	b941fbf9 	ldr	w25, [sp, #504]
  402b64:	a90873fb 	stp	x27, x28, [sp, #128]
  402b68:	2a0203fc 	mov	w28, w2
  402b6c:	b900abe7 	str	w7, [sp, #168]
  402b70:	b900b3e8 	str	w8, [sp, #176]
  402b74:	f9006ff5 	str	x21, [sp, #216]
  402b78:	b900efe4 	str	w4, [sp, #236]
  402b7c:	f9007be6 	str	x6, [sp, #240]
  402b80:	b900ffe0 	str	w0, [sp, #252]
  402b84:	d2800800 	mov	x0, #0x40                  	// #64
  402b88:	f90083e5 	str	x5, [sp, #256]
  402b8c:	b9010be1 	str	w1, [sp, #264]
  402b90:	937e7c61 	sbfiz	x1, x3, #2, #32
  402b94:	b90163f4 	str	w20, [sp, #352]
  402b98:	97fff70a 	bl	4007c0 <aligned_alloc@plt>
  402b9c:	1b167e61 	mul	w1, w19, w22
  402ba0:	f90063e0 	str	x0, [sp, #192]
  402ba4:	d2800800 	mov	x0, #0x40                  	// #64
  402ba8:	937e7c21 	sbfiz	x1, x1, #2, #32
  402bac:	97fff705 	bl	4007c0 <aligned_alloc@plt>
  402bb0:	1b187ee2 	mul	w2, w23, w24
  402bb4:	52800001 	mov	w1, #0x0                   	// #0
  402bb8:	aa0003f7 	mov	x23, x0
  402bbc:	aa1503e0 	mov	x0, x21
  402bc0:	937e7c42 	sbfiz	x2, x2, #2, #32
  402bc4:	97fff70f 	bl	400800 <memset@plt>
  402bc8:	7100039f 	cmp	w28, #0x0
  402bcc:	54004ead 	b.le	4035a0 <_Z9cache_kijILi4ELi16EEviiiiiiPfiS0_iS0_i+0xa80>
  402bd0:	b940abec 	ldr	w12, [sp, #168]
  402bd4:	52800184 	mov	w4, #0xc                   	// #12
  402bd8:	b940b3ea 	ldr	w10, [sp, #176]
  402bdc:	900000fb 	adrp	x27, 41e000 <_Z21register_block_vv_3x4ILi3ELi16EEviPKfS1_Pfi+0xe0>
  402be0:	2a1403e6 	mov	w6, w20
  402be4:	531e7728 	lsl	w8, w25, #2
  402be8:	531e7580 	lsl	w0, w12, #2
  402bec:	93407d8f 	sxtw	x15, w12
  402bf0:	9b247d8b 	smull	x11, w12, w4
  402bf4:	2a1c03f6 	mov	w22, w28
  402bf8:	93407c10 	sxtw	x16, w0
  402bfc:	1b197d51 	mul	w17, w10, w25
  402c00:	1b137e94 	mul	w20, w20, w19
  402c04:	93407e65 	sxtw	x5, w19
  402c08:	1b0c7d52 	mul	w18, w10, w12
  402c0c:	2a1303e3 	mov	w3, w19
  402c10:	d2800009 	mov	x9, #0x0                   	// #0
  402c14:	2a1903f3 	mov	w19, w25
  402c18:	937d7d8e 	sbfiz	x14, x12, #3, #32
  402c1c:	2a1c03f9 	mov	w25, w28
  402c20:	2a0a03f8 	mov	w24, w10
  402c24:	aa1703fc 	mov	x28, x23
  402c28:	fd004be8 	str	d8, [sp, #144]
  402c2c:	937e7cde 	sbfiz	x30, x6, #2, #32
  402c30:	fd41eb68 	ldr	d8, [x27, #976]
  402c34:	aa0903fb 	mov	x27, x9
  402c38:	f9009ff0 	str	x16, [sp, #312]
  402c3c:	aa0f03f0 	mov	x16, x15
  402c40:	aa0b03ef 	mov	x15, x11
  402c44:	52800007 	mov	w7, #0x0                   	// #0
  402c48:	5280000d 	mov	w13, #0x0                   	// #0
  402c4c:	d000017a 	adrp	x26, 430000 <puts@GLIBC_2.17>
  402c50:	b900d3e8 	str	w8, [sp, #208]
  402c54:	f90093fe 	str	x30, [sp, #288]
  402c58:	b90153f1 	str	w17, [sp, #336]
  402c5c:	b90157f2 	str	w18, [sp, #340]
  402c60:	b90167ec 	str	w12, [sp, #356]
  402c64:	b940ffe2 	ldr	w2, [sp, #252]
  402c68:	6b0302df 	cmp	w22, w3
  402c6c:	1a83d2d7 	csel	w23, w22, w3, le
  402c70:	7100005f 	cmp	w2, #0x0
  402c74:	5400486d 	b.le	403580 <_Z9cache_kijILi4ELi16EEviiiiiiPfiS0_iS0_i+0xa60>
  402c78:	510006f5 	sub	w21, w23, #0x1
  402c7c:	b9010fed 	str	w13, [sp, #268]
  402c80:	910006a1 	add	x1, x21, #0x1
  402c84:	531e76e4 	lsl	w4, w23, #2
  402c88:	f94063ed 	ldr	x13, [sp, #192]
  402c8c:	d37ae42a 	lsl	x10, x1, #6
  402c90:	937c7ee9 	sbfiz	x9, x23, #4, #32
  402c94:	aa0e03eb 	mov	x11, x14
  402c98:	937a7efe 	sbfiz	x30, x23, #6, #32
  402c9c:	aa1003f5 	mov	x21, x16
  402ca0:	aa0f03ee 	mov	x14, x15
  402ca4:	f9009bea 	str	x10, [sp, #304]
  402ca8:	2a0203ea 	mov	w10, w2
  402cac:	2a1803f2 	mov	w18, w24
  402cb0:	52800008 	mov	w8, #0x0                   	// #0
  402cb4:	2a1303f8 	mov	w24, w19
  402cb8:	8b0901b3 	add	x19, x13, x9
  402cbc:	b900d7e4 	str	w4, [sp, #212]
  402cc0:	b900ebff 	str	wzr, [sp, #232]
  402cc4:	f9008bfb 	str	x27, [sp, #272]
  402cc8:	b9011be7 	str	w7, [sp, #280]
  402ccc:	937e7c87 	sbfiz	x7, x4, #2, #32
  402cd0:	f900a3e7 	str	x7, [sp, #320]
  402cd4:	f900a7f3 	str	x19, [sp, #328]
  402cd8:	f900b7e9 	str	x9, [sp, #360]
  402cdc:	52800009 	mov	w9, #0x0                   	// #0
  402ce0:	b90173f6 	str	w22, [sp, #368]
  402ce4:	b90177f4 	str	w20, [sp, #372]
  402ce8:	f900bfe5 	str	x5, [sp, #376]
  402cec:	b90183f9 	str	w25, [sp, #384]
  402cf0:	b90187e3 	str	w3, [sp, #388]
  402cf4:	6b12015f 	cmp	w10, w18
  402cf8:	1a92d154 	csel	w20, w10, w18, le
  402cfc:	6b1403f9 	negs	w25, w20
  402d00:	12000685 	and	w5, w20, #0x3
  402d04:	1200072c 	and	w12, w25, #0x3
  402d08:	5a8c44b0 	csneg	w16, w5, w12, mi  // mi = first
  402d0c:	4b10028f 	sub	w15, w20, w16
  402d10:	b900b7ef 	str	w15, [sp, #180]
  402d14:	710001ff 	cmp	w15, #0x0
  402d18:	5400100d 	b.le	402f18 <_Z9cache_kijILi4ELi16EEviiiiiiPfiS0_iS0_i+0x3f8>
  402d1c:	f9408be6 	ldr	x6, [sp, #272]
  402d20:	2a0803fb 	mov	w27, w8
  402d24:	f940a7f9 	ldr	x25, [sp, #328]
  402d28:	aa0e03f6 	mov	x22, x14
  402d2c:	8b29c0d1 	add	x17, x6, w9, sxtw
  402d30:	b900b3f4 	str	w20, [sp, #176]
  402d34:	aa1503f4 	mov	x20, x21
  402d38:	aa0b03f5 	mov	x21, x11
  402d3c:	b900fbf8 	str	w24, [sp, #248]
  402d40:	aa1103f8 	mov	x24, x17
  402d44:	52800013 	mov	w19, #0x0                   	// #0
  402d48:	f90057fe 	str	x30, [sp, #168]
  402d4c:	b900bbea 	str	w10, [sp, #184]
  402d50:	b900cbe9 	str	w9, [sp, #200]
  402d54:	b900e3f2 	str	w18, [sp, #224]
  402d58:	910703e1 	add	x1, sp, #0x1c0
  402d5c:	52800020 	mov	w0, #0x1                   	// #1
  402d60:	97fff6b4 	bl	400830 <clock_gettime@plt>
  402d64:	f940b7e3 	ldr	x3, [sp, #360]
  402d68:	710002ff 	cmp	w23, #0x0
  402d6c:	cb030320 	sub	x0, x25, x3
  402d70:	5400090d 	b.le	402e90 <_Z9cache_kijILi4ELi16EEviiiiiiPfiS0_iS0_i+0x370>
  402d74:	cb00032b 	sub	x11, x25, x0
  402d78:	d37ef70e 	lsl	x14, x24, #2
  402d7c:	d1004172 	sub	x18, x11, #0x10
  402d80:	f9407be4 	ldr	x4, [sp, #240]
  402d84:	d344fe5e 	lsr	x30, x18, #4
  402d88:	910007c8 	add	x8, x30, #0x1
  402d8c:	f2400502 	ands	x2, x8, #0x3
  402d90:	8b0e0081 	add	x1, x4, x14
  402d94:	54000400 	b.eq	402e14 <_Z9cache_kijILi4ELi16EEviiiiiiPfiS0_iS0_i+0x2f4>  // b.none
  402d98:	f100045f 	cmp	x2, #0x1
  402d9c:	54000280 	b.eq	402dec <_Z9cache_kijILi4ELi16EEviiiiiiPfiS0_iS0_i+0x2cc>  // b.none
  402da0:	f100085f 	cmp	x2, #0x2
  402da4:	54000140 	b.eq	402dcc <_Z9cache_kijILi4ELi16EEviiiiiiPfiS0_iS0_i+0x2ac>  // b.none
  402da8:	f9407be9 	ldr	x9, [sp, #240]
  402dac:	bc747822 	ldr	s2, [x1, x20, lsl #2]
  402db0:	bc756821 	ldr	s1, [x1, x21]
  402db4:	bc766820 	ldr	s0, [x1, x22]
  402db8:	91001021 	add	x1, x1, #0x4
  402dbc:	bc6e6923 	ldr	s3, [x9, x14]
  402dc0:	2d010001 	stp	s1, s0, [x0, #8]
  402dc4:	2d000803 	stp	s3, s2, [x0]
  402dc8:	91004000 	add	x0, x0, #0x10
  402dcc:	bc747824 	ldr	s4, [x1, x20, lsl #2]
  402dd0:	bc756825 	ldr	s5, [x1, x21]
  402dd4:	bc766826 	ldr	s6, [x1, x22]
  402dd8:	91001021 	add	x1, x1, #0x4
  402ddc:	bc5fc027 	ldur	s7, [x1, #-4]
  402de0:	2d011805 	stp	s5, s6, [x0, #8]
  402de4:	2d001007 	stp	s7, s4, [x0]
  402de8:	91004000 	add	x0, x0, #0x10
  402dec:	bc747830 	ldr	s16, [x1, x20, lsl #2]
  402df0:	bc756831 	ldr	s17, [x1, x21]
  402df4:	bc766832 	ldr	s18, [x1, x22]
  402df8:	91001021 	add	x1, x1, #0x4
  402dfc:	bc5fc033 	ldur	s19, [x1, #-4]
  402e00:	2d014811 	stp	s17, s18, [x0, #8]
  402e04:	2d004013 	stp	s19, s16, [x0]
  402e08:	91004000 	add	x0, x0, #0x10
  402e0c:	eb19001f 	cmp	x0, x25
  402e10:	54000400 	b.eq	402e90 <_Z9cache_kijILi4ELi16EEviiiiiiPfiS0_iS0_i+0x370>  // b.none
  402e14:	9100102a 	add	x10, x1, #0x4
  402e18:	91002027 	add	x7, x1, #0x8
  402e1c:	9100302d 	add	x13, x1, #0xc
  402e20:	bc747835 	ldr	s21, [x1, x20, lsl #2]
  402e24:	2d407834 	ldp	s20, s30, [x1]
  402e28:	9100c005 	add	x5, x0, #0x30
  402e2c:	2d41083f 	ldp	s31, s2, [x1, #8]
  402e30:	bc756836 	ldr	s22, [x1, x21]
  402e34:	bc766837 	ldr	s23, [x1, x22]
  402e38:	91004021 	add	x1, x1, #0x10
  402e3c:	bc747958 	ldr	s24, [x10, x20, lsl #2]
  402e40:	bc756959 	ldr	s25, [x10, x21]
  402e44:	bc76695a 	ldr	s26, [x10, x22]
  402e48:	bc7478fb 	ldr	s27, [x7, x20, lsl #2]
  402e4c:	bc7568fc 	ldr	s28, [x7, x21]
  402e50:	bc7668fd 	ldr	s29, [x7, x22]
  402e54:	bc7479a3 	ldr	s3, [x13, x20, lsl #2]
  402e58:	bc7569a1 	ldr	s1, [x13, x21]
  402e5c:	bc7669a0 	ldr	s0, [x13, x22]
  402e60:	2d005414 	stp	s20, s21, [x0]
  402e64:	2d015c16 	stp	s22, s23, [x0, #8]
  402e68:	2d02601e 	stp	s30, s24, [x0, #16]
  402e6c:	2d036819 	stp	s25, s26, [x0, #24]
  402e70:	2d046c1f 	stp	s31, s27, [x0, #32]
  402e74:	2d05741c 	stp	s28, s29, [x0, #40]
  402e78:	91010000 	add	x0, x0, #0x40
  402e7c:	bc1f0002 	stur	s2, [x0, #-16]
  402e80:	2d0084a3 	stp	s3, s1, [x5, #4]
  402e84:	bd000ca0 	str	s0, [x5, #12]
  402e88:	eb19001f 	cmp	x0, x25
  402e8c:	54fffc41 	b.ne	402e14 <_Z9cache_kijILi4ELi16EEviiiiiiPfiS0_iS0_i+0x2f4>  // b.any
  402e90:	910743e1 	add	x1, sp, #0x1d0
  402e94:	52800020 	mov	w0, #0x1                   	// #1
  402e98:	97fff666 	bl	400830 <clock_gettime@plt>
  402e9c:	11001273 	add	w19, w19, #0x4
  402ea0:	a95c0feb 	ldp	x11, x3, [sp, #448]
  402ea4:	d000016c 	adrp	x12, 430000 <puts@GLIBC_2.17>
  402ea8:	f940efee 	ldr	x14, [sp, #472]
  402eac:	9102218f 	add	x15, x12, #0x88
  402eb0:	f940ebe2 	ldr	x2, [sp, #464]
  402eb4:	cb0301d2 	sub	x18, x14, x3
  402eb8:	fd4001e4 	ldr	d4, [x15]
  402ebc:	cb0b0044 	sub	x4, x2, x11
  402ec0:	b940b7e9 	ldr	w9, [sp, #180]
  402ec4:	9e620245 	scvtf	d5, x18
  402ec8:	9e620086 	scvtf	d6, x4
  402ecc:	f9409fe6 	ldr	x6, [sp, #312]
  402ed0:	1f4818a7 	fmadd	d7, d5, d8, d6
  402ed4:	f940a3e8 	ldr	x8, [sp, #320]
  402ed8:	8b060318 	add	x24, x24, x6
  402edc:	8b080339 	add	x25, x25, x8
  402ee0:	1e672890 	fadd	d16, d4, d7
  402ee4:	fd0001f0 	str	d16, [x15]
  402ee8:	6b13013f 	cmp	w9, w19
  402eec:	54fff36c 	b.gt	402d58 <_Z9cache_kijILi4ELi16EEviiiiiiPfiS0_iS0_i+0x238>
  402ef0:	f94057fe 	ldr	x30, [sp, #168]
  402ef4:	aa1503eb 	mov	x11, x21
  402ef8:	b940bbea 	ldr	w10, [sp, #184]
  402efc:	aa1403f5 	mov	x21, x20
  402f00:	b940cbe9 	ldr	w9, [sp, #200]
  402f04:	aa1603ee 	mov	x14, x22
  402f08:	b940b3f4 	ldr	w20, [sp, #176]
  402f0c:	2a1b03e8 	mov	w8, w27
  402f10:	b940e3f2 	ldr	w18, [sp, #224]
  402f14:	b940fbf8 	ldr	w24, [sp, #248]
  402f18:	b9410bf0 	ldr	w16, [sp, #264]
  402f1c:	7100021f 	cmp	w16, #0x0
  402f20:	5400302d 	b.le	403524 <_Z9cache_kijILi4ELi16EEviiiiiiPfiS0_iS0_i+0xa04>
  402f24:	2a1403f3 	mov	w19, w20
  402f28:	2a1003f6 	mov	w22, w16
  402f2c:	aa1e03f4 	mov	x20, x30
  402f30:	b9811bfe 	ldrsw	x30, [sp, #280]
  402f34:	a918aff5 	stp	x21, x11, [sp, #392]
  402f38:	d000017b 	adrp	x27, 430000 <puts@GLIBC_2.17>
  402f3c:	b980eff5 	ldrsw	x21, [sp, #236]
  402f40:	91022371 	add	x17, x27, #0x88
  402f44:	f90067ff 	str	xzr, [sp, #200]
  402f48:	f90073fe 	str	x30, [sp, #224]
  402f4c:	b900fbff 	str	wzr, [sp, #248]
  402f50:	b9011fe8 	str	w8, [sp, #284]
  402f54:	f90097f5 	str	x21, [sp, #296]
  402f58:	f900aff1 	str	x17, [sp, #344]
  402f5c:	f900cfee 	str	x14, [sp, #408]
  402f60:	b901a3ea 	str	w10, [sp, #416]
  402f64:	b901a7e9 	str	w9, [sp, #420]
  402f68:	b901b3f2 	str	w18, [sp, #432]
  402f6c:	b940efe0 	ldr	w0, [sp, #236]
  402f70:	910703e1 	add	x1, sp, #0x1c0
  402f74:	6b0002df 	cmp	w22, w0
  402f78:	1a80d2db 	csel	w27, w22, w0, le
  402f7c:	52800020 	mov	w0, #0x1                   	// #1
  402f80:	6b1b03ea 	negs	w10, w27
  402f84:	12000f67 	and	w7, w27, #0xf
  402f88:	12000d4d 	and	w13, w10, #0xf
  402f8c:	5a8d44e5 	csneg	w5, w7, w13, mi  // mi = first
  402f90:	4b050375 	sub	w21, w27, w5
  402f94:	97fff627 	bl	400830 <clock_gettime@plt>
  402f98:	710002bf 	cmp	w21, #0x0
  402f9c:	5400102d 	b.le	4031a0 <_Z9cache_kijILi4ELi16EEviiiiiiPfiS0_iS0_i+0x680>
  402fa0:	f94073ec 	ldr	x12, [sp, #224]
  402fa4:	aa1c03e3 	mov	x3, x28
  402fa8:	f94083e1 	ldr	x1, [sp, #256]
  402fac:	d2800005 	mov	x5, #0x0                   	// #0
  402fb0:	f94093e8 	ldr	x8, [sp, #288]
  402fb4:	f9409be6 	ldr	x6, [sp, #304]
  402fb8:	8b0c0824 	add	x4, x1, x12, lsl #2
  402fbc:	710002ff 	cmp	w23, #0x0
  402fc0:	54000e8d 	b.le	403190 <_Z9cache_kijILi4ELi16EEviiiiiiPfiS0_iS0_i+0x670>
  402fc4:	d101028f 	sub	x15, x20, #0x40
  402fc8:	8b14006e 	add	x14, x3, x20
  402fcc:	aa0403f9 	mov	x25, x4
  402fd0:	aa0303f0 	mov	x16, x3
  402fd4:	d346fdeb 	lsr	x11, x15, #6
  402fd8:	91000572 	add	x18, x11, #0x1
  402fdc:	f2400a42 	ands	x2, x18, #0x7
  402fe0:	54000720 	b.eq	4030c4 <_Z9cache_kijILi4ELi16EEviiiiiiPfiS0_iS0_i+0x5a4>  // b.none
  402fe4:	f100045f 	cmp	x2, #0x1
  402fe8:	540005e0 	b.eq	4030a4 <_Z9cache_kijILi4ELi16EEviiiiiiPfiS0_iS0_i+0x584>  // b.none
  402fec:	f100085f 	cmp	x2, #0x2
  402ff0:	540004e0 	b.eq	40308c <_Z9cache_kijILi4ELi16EEviiiiiiPfiS0_iS0_i+0x56c>  // b.none
  402ff4:	f1000c5f 	cmp	x2, #0x3
  402ff8:	540003e0 	b.eq	403074 <_Z9cache_kijILi4ELi16EEviiiiiiPfiS0_iS0_i+0x554>  // b.none
  402ffc:	f100105f 	cmp	x2, #0x4
  403000:	540002e0 	b.eq	40305c <_Z9cache_kijILi4ELi16EEviiiiiiPfiS0_iS0_i+0x53c>  // b.none
  403004:	f100145f 	cmp	x2, #0x5
  403008:	540001e0 	b.eq	403044 <_Z9cache_kijILi4ELi16EEviiiiiiPfiS0_iS0_i+0x524>  // b.none
  40300c:	f100185f 	cmp	x2, #0x6
  403010:	540000e0 	b.eq	40302c <_Z9cache_kijILi4ELi16EEviiiiiiPfiS0_iS0_i+0x50c>  // b.none
  403014:	ad404891 	ldp	q17, q18, [x4]
  403018:	91010070 	add	x16, x3, #0x40
  40301c:	8b080099 	add	x25, x4, x8
  403020:	ad004871 	stp	q17, q18, [x3]
  403024:	ad415493 	ldp	q19, q21, [x4, #32]
  403028:	ad015473 	stp	q19, q21, [x3, #32]
  40302c:	ad405f36 	ldp	q22, q23, [x25]
  403030:	ad005e16 	stp	q22, q23, [x16]
  403034:	ad416738 	ldp	q24, q25, [x25, #32]
  403038:	8b080339 	add	x25, x25, x8
  40303c:	ad016618 	stp	q24, q25, [x16, #32]
  403040:	91010210 	add	x16, x16, #0x40
  403044:	ad406f3a 	ldp	q26, q27, [x25]
  403048:	ad006e1a 	stp	q26, q27, [x16]
  40304c:	ad41773c 	ldp	q28, q29, [x25, #32]
  403050:	8b080339 	add	x25, x25, x8
  403054:	ad01761c 	stp	q28, q29, [x16, #32]
  403058:	91010210 	add	x16, x16, #0x40
  40305c:	ad407b34 	ldp	q20, q30, [x25]
  403060:	ad007a14 	stp	q20, q30, [x16]
  403064:	ad410b3f 	ldp	q31, q2, [x25, #32]
  403068:	8b080339 	add	x25, x25, x8
  40306c:	ad010a1f 	stp	q31, q2, [x16, #32]
  403070:	91010210 	add	x16, x16, #0x40
  403074:	ad400723 	ldp	q3, q1, [x25]
  403078:	ad000603 	stp	q3, q1, [x16]
  40307c:	ad411320 	ldp	q0, q4, [x25, #32]
  403080:	8b080339 	add	x25, x25, x8
  403084:	ad011200 	stp	q0, q4, [x16, #32]
  403088:	91010210 	add	x16, x16, #0x40
  40308c:	ad401b25 	ldp	q5, q6, [x25]
  403090:	ad001a05 	stp	q5, q6, [x16]
  403094:	ad414327 	ldp	q7, q16, [x25, #32]
  403098:	8b080339 	add	x25, x25, x8
  40309c:	ad014207 	stp	q7, q16, [x16, #32]
  4030a0:	91010210 	add	x16, x16, #0x40
  4030a4:	ad404b31 	ldp	q17, q18, [x25]
  4030a8:	ad004a11 	stp	q17, q18, [x16]
  4030ac:	ad415733 	ldp	q19, q21, [x25, #32]
  4030b0:	8b080339 	add	x25, x25, x8
  4030b4:	ad015613 	stp	q19, q21, [x16, #32]
  4030b8:	91010210 	add	x16, x16, #0x40
  4030bc:	eb1001df 	cmp	x14, x16
  4030c0:	54000660 	b.eq	40318c <_Z9cache_kijILi4ELi16EEviiiiiiPfiS0_iS0_i+0x66c>  // b.none
  4030c4:	ad405f36 	ldp	q22, q23, [x25]
  4030c8:	8b080331 	add	x17, x25, x8
  4030cc:	9101021e 	add	x30, x16, #0x40
  4030d0:	8b080229 	add	x9, x17, x8
  4030d4:	91020200 	add	x0, x16, #0x80
  4030d8:	8b08012a 	add	x10, x9, x8
  4030dc:	ad005e16 	stp	q22, q23, [x16]
  4030e0:	91030207 	add	x7, x16, #0xc0
  4030e4:	8b08014d 	add	x13, x10, x8
  4030e8:	ad416738 	ldp	q24, q25, [x25, #32]
  4030ec:	9104020f 	add	x15, x16, #0x100
  4030f0:	8b0801a1 	add	x1, x13, x8
  4030f4:	9105020c 	add	x12, x16, #0x140
  4030f8:	8b080032 	add	x18, x1, x8
  4030fc:	9106020b 	add	x11, x16, #0x180
  403100:	ad016618 	stp	q24, q25, [x16, #32]
  403104:	8b080242 	add	x2, x18, x8
  403108:	8b080059 	add	x25, x2, x8
  40310c:	ad406e3a 	ldp	q26, q27, [x17]
  403110:	ad006fda 	stp	q26, q27, [x30]
  403114:	ad41763c 	ldp	q28, q29, [x17, #32]
  403118:	91070211 	add	x17, x16, #0x1c0
  40311c:	91080210 	add	x16, x16, #0x200
  403120:	ad0177dc 	stp	q28, q29, [x30, #32]
  403124:	ad407934 	ldp	q20, q30, [x9]
  403128:	ad007814 	stp	q20, q30, [x0]
  40312c:	ad41093f 	ldp	q31, q2, [x9, #32]
  403130:	ad01081f 	stp	q31, q2, [x0, #32]
  403134:	ad400543 	ldp	q3, q1, [x10]
  403138:	ad0004e3 	stp	q3, q1, [x7]
  40313c:	ad411140 	ldp	q0, q4, [x10, #32]
  403140:	ad0110e0 	stp	q0, q4, [x7, #32]
  403144:	ad4019a5 	ldp	q5, q6, [x13]
  403148:	ad0019e5 	stp	q5, q6, [x15]
  40314c:	ad4141a7 	ldp	q7, q16, [x13, #32]
  403150:	ad0141e7 	stp	q7, q16, [x15, #32]
  403154:	ad404831 	ldp	q17, q18, [x1]
  403158:	ad004991 	stp	q17, q18, [x12]
  40315c:	ad415433 	ldp	q19, q21, [x1, #32]
  403160:	ad015593 	stp	q19, q21, [x12, #32]
  403164:	ad405e56 	ldp	q22, q23, [x18]
  403168:	ad005d76 	stp	q22, q23, [x11]
  40316c:	ad416658 	ldp	q24, q25, [x18, #32]
  403170:	ad016578 	stp	q24, q25, [x11, #32]
  403174:	ad406c5a 	ldp	q26, q27, [x2]
  403178:	ad006e3a 	stp	q26, q27, [x17]
  40317c:	ad41745c 	ldp	q28, q29, [x2, #32]
  403180:	ad01763c 	stp	q28, q29, [x17, #32]
  403184:	eb1001df 	cmp	x14, x16
  403188:	54fff9e1 	b.ne	4030c4 <_Z9cache_kijILi4ELi16EEviiiiiiPfiS0_iS0_i+0x5a4>  // b.any
  40318c:	8b060063 	add	x3, x3, x6
  403190:	910040a5 	add	x5, x5, #0x10
  403194:	91010084 	add	x4, x4, #0x40
  403198:	6b0502bf 	cmp	w21, w5
  40319c:	54fff10c 	b.gt	402fbc <_Z9cache_kijILi4ELi16EEviiiiiiPfiS0_iS0_i+0x49c>
  4031a0:	910743e1 	add	x1, sp, #0x1d0
  4031a4:	52800020 	mov	w0, #0x1                   	// #1
  4031a8:	97fff5a2 	bl	400830 <clock_gettime@plt>
  4031ac:	a95c1bf9 	ldp	x25, x6, [sp, #448]
  4031b0:	f940efe8 	ldr	x8, [sp, #472]
  4031b4:	f940ebe0 	ldr	x0, [sp, #464]
  4031b8:	cb060109 	sub	x9, x8, x6
  4031bc:	b940b7e7 	ldr	w7, [sp, #180]
  4031c0:	cb19000a 	sub	x10, x0, x25
  4031c4:	9e620134 	scvtf	d20, x9
  4031c8:	9e62015f 	scvtf	d31, x10
  4031cc:	f940afee 	ldr	x14, [sp, #344]
  4031d0:	1f487e82 	fmadd	d2, d20, d8, d31
  4031d4:	fd4001de 	ldr	d30, [x14]
  4031d8:	1e622bc3 	fadd	d3, d30, d2
  4031dc:	fd0001c3 	str	d3, [x14]
  4031e0:	710000ff 	cmp	w7, #0x0
  4031e4:	540014cd 	b.le	40347c <_Z9cache_kijILi4ELi16EEviiiiiiPfiS0_iS0_i+0x95c>
  4031e8:	b940ebfe 	ldr	w30, [sp, #232]
  4031ec:	52800010 	mov	w16, #0x0                   	// #0
  4031f0:	b901bffb 	str	w27, [sp, #444]
  4031f4:	2a1503fb 	mov	w27, w21
  4031f8:	2a1003f5 	mov	w21, w16
  4031fc:	b900abfe 	str	w30, [sp, #168]
  403200:	b900b3ff 	str	wzr, [sp, #176]
  403204:	f900d7f4 	str	x20, [sp, #424]
  403208:	b901b7f3 	str	w19, [sp, #436]
  40320c:	b901bbf6 	str	w22, [sp, #440]
  403210:	7100037f 	cmp	w27, #0x0
  403214:	5400112d 	b.le	403438 <_Z9cache_kijILi4ELi16EEviiiiiiPfiS0_iS0_i+0x918>
  403218:	f94067f3 	ldr	x19, [sp, #200]
  40321c:	51000774 	sub	w20, w27, #0x1
  403220:	b940abf6 	ldr	w22, [sp, #168]
  403224:	52800020 	mov	w0, #0x1                   	// #1
  403228:	f94063e1 	ldr	x1, [sp, #192]
  40322c:	d3441292 	ubfx	x18, x20, #4, #1
  403230:	f9406fec 	ldr	x12, [sp, #216]
  403234:	8b36c26d 	add	x13, x19, w22, sxtw
  403238:	b940b3ef 	ldr	w15, [sp, #176]
  40323c:	91020359 	add	x25, x26, #0x80
  403240:	f9005ff2 	str	x18, [sp, #184]
  403244:	52800214 	mov	w20, #0x10                  	// #16
  403248:	8b0d0993 	add	x19, x12, x13, lsl #2
  40324c:	8b2fc836 	add	x22, x1, w15, sxtw #2
  403250:	910703e1 	add	x1, sp, #0x1c0
  403254:	97fff577 	bl	400830 <clock_gettime@plt>
  403258:	aa1303e6 	mov	x6, x19
  40325c:	aa1c03e5 	mov	x5, x28
  403260:	aa1603e4 	mov	x4, x22
  403264:	2a1703e3 	mov	w3, w23
  403268:	2a1803e7 	mov	w7, w24
  40326c:	52800002 	mov	w2, #0x0                   	// #0
  403270:	52800201 	mov	w1, #0x10                  	// #16
  403274:	52800080 	mov	w0, #0x4                   	// #4
  403278:	940064c6 	bl	41c590 <_Z14register_blockiiiiPKfS0_Pfi>
  40327c:	91010273 	add	x19, x19, #0x40
  403280:	910743e1 	add	x1, sp, #0x1d0
  403284:	52800020 	mov	w0, #0x1                   	// #1
  403288:	97fff56a 	bl	400830 <clock_gettime@plt>
  40328c:	a95c0beb 	ldp	x11, x2, [sp, #448]
  403290:	a95d17e3 	ldp	x3, x5, [sp, #464]
  403294:	fd404341 	ldr	d1, [x26, #128]
  403298:	cb0200ae 	sub	x14, x5, x2
  40329c:	cb0b0064 	sub	x4, x3, x11
  4032a0:	9e6201c4 	scvtf	d4, x14
  4032a4:	9e620080 	scvtf	d0, x4
  4032a8:	1f480085 	fmadd	d5, d4, d8, d0
  4032ac:	1e652826 	fadd	d6, d1, d5
  4032b0:	fd004346 	str	d6, [x26, #128]
  4032b4:	6b14037f 	cmp	w27, w20
  4032b8:	54000c0d 	b.le	403438 <_Z9cache_kijILi4ELi16EEviiiiiiPfiS0_iS0_i+0x918>
  4032bc:	b940bbf1 	ldr	w17, [sp, #184]
  4032c0:	34000411 	cbz	w17, 403340 <_Z9cache_kijILi4ELi16EEviiiiiiPfiS0_iS0_i+0x820>
  4032c4:	910703e1 	add	x1, sp, #0x1c0
  4032c8:	52800020 	mov	w0, #0x1                   	// #1
  4032cc:	97fff559 	bl	400830 <clock_gettime@plt>
  4032d0:	531c6ee6 	lsl	w6, w23, #4
  4032d4:	2a1803e7 	mov	w7, w24
  4032d8:	aa1603e4 	mov	x4, x22
  4032dc:	2a1703e3 	mov	w3, w23
  4032e0:	8b26cb85 	add	x5, x28, w6, sxtw #2
  4032e4:	aa1303e6 	mov	x6, x19
  4032e8:	52800002 	mov	w2, #0x0                   	// #0
  4032ec:	2a1403e1 	mov	w1, w20
  4032f0:	52800080 	mov	w0, #0x4                   	// #4
  4032f4:	940064a7 	bl	41c590 <_Z14register_blockiiiiPKfS0_Pfi>
  4032f8:	910743e1 	add	x1, sp, #0x1d0
  4032fc:	52800020 	mov	w0, #0x1                   	// #1
  403300:	97fff54c 	bl	400830 <clock_gettime@plt>
  403304:	91010273 	add	x19, x19, #0x40
  403308:	a95c27e8 	ldp	x8, x9, [sp, #448]
  40330c:	52800414 	mov	w20, #0x20                  	// #32
  403310:	a95d03ea 	ldp	x10, x0, [sp, #464]
  403314:	fd404347 	ldr	d7, [x26, #128]
  403318:	cb09000d 	sub	x13, x0, x9
  40331c:	cb080147 	sub	x7, x10, x8
  403320:	9e6201b1 	scvtf	d17, x13
  403324:	9e6200f0 	scvtf	d16, x7
  403328:	1f484232 	fmadd	d18, d17, d8, d16
  40332c:	1e7228f3 	fadd	d19, d7, d18
  403330:	fd004353 	str	d19, [x26, #128]
  403334:	6b14037f 	cmp	w27, w20
  403338:	5400080d 	b.le	403438 <_Z9cache_kijILi4ELi16EEviiiiiiPfiS0_iS0_i+0x918>
  40333c:	d503201f 	nop
  403340:	910703e1 	add	x1, sp, #0x1c0
  403344:	52800020 	mov	w0, #0x1                   	// #1
  403348:	97fff53a 	bl	400830 <clock_gettime@plt>
  40334c:	13047e8f 	asr	w15, w20, #4
  403350:	aa1303e6 	mov	x6, x19
  403354:	2a1803e7 	mov	w7, w24
  403358:	aa1603e4 	mov	x4, x22
  40335c:	2a1703e3 	mov	w3, w23
  403360:	52800002 	mov	w2, #0x0                   	// #0
  403364:	1b177dec 	mul	w12, w15, w23
  403368:	52800201 	mov	w1, #0x10                  	// #16
  40336c:	52800080 	mov	w0, #0x4                   	// #4
  403370:	11004294 	add	w20, w20, #0x10
  403374:	91010273 	add	x19, x19, #0x40
  403378:	531c6d92 	lsl	w18, w12, #4
  40337c:	8b32cb85 	add	x5, x28, w18, sxtw #2
  403380:	94006484 	bl	41c590 <_Z14register_blockiiiiPKfS0_Pfi>
  403384:	910743e1 	add	x1, sp, #0x1d0
  403388:	52800020 	mov	w0, #0x1                   	// #1
  40338c:	97fff529 	bl	400830 <clock_gettime@plt>
  403390:	a95c17eb 	ldp	x11, x5, [sp, #448]
  403394:	910703e1 	add	x1, sp, #0x1c0
  403398:	a95d0be3 	ldp	x3, x2, [sp, #464]
  40339c:	52800020 	mov	w0, #0x1                   	// #1
  4033a0:	fd400335 	ldr	d21, [x25]
  4033a4:	cb05004e 	sub	x14, x2, x5
  4033a8:	cb0b0064 	sub	x4, x3, x11
  4033ac:	9e6201d7 	scvtf	d23, x14
  4033b0:	9e620096 	scvtf	d22, x4
  4033b4:	1f485af8 	fmadd	d24, d23, d8, d22
  4033b8:	1e782ab9 	fadd	d25, d21, d24
  4033bc:	fd000339 	str	d25, [x25]
  4033c0:	97fff51c 	bl	400830 <clock_gettime@plt>
  4033c4:	13047e81 	asr	w1, w20, #4
  4033c8:	aa1303e6 	mov	x6, x19
  4033cc:	2a1803e7 	mov	w7, w24
  4033d0:	aa1603e4 	mov	x4, x22
  4033d4:	2a1703e3 	mov	w3, w23
  4033d8:	52800002 	mov	w2, #0x0                   	// #0
  4033dc:	1b177c28 	mul	w8, w1, w23
  4033e0:	52800080 	mov	w0, #0x4                   	// #4
  4033e4:	52800201 	mov	w1, #0x10                  	// #16
  4033e8:	11004294 	add	w20, w20, #0x10
  4033ec:	91010273 	add	x19, x19, #0x40
  4033f0:	531c6d09 	lsl	w9, w8, #4
  4033f4:	8b29cb85 	add	x5, x28, w9, sxtw #2
  4033f8:	94006466 	bl	41c590 <_Z14register_blockiiiiPKfS0_Pfi>
  4033fc:	910743e1 	add	x1, sp, #0x1d0
  403400:	52800020 	mov	w0, #0x1                   	// #1
  403404:	97fff50b 	bl	400830 <clock_gettime@plt>
  403408:	a95c2be6 	ldp	x6, x10, [sp, #448]
  40340c:	a95d03e7 	ldp	x7, x0, [sp, #464]
  403410:	fd40033a 	ldr	d26, [x25]
  403414:	cb0a000f 	sub	x15, x0, x10
  403418:	cb0600ed 	sub	x13, x7, x6
  40341c:	9e6201fc 	scvtf	d28, x15
  403420:	9e6201bb 	scvtf	d27, x13
  403424:	1f486f9d 	fmadd	d29, d28, d8, d27
  403428:	1e7d2b54 	fadd	d20, d26, d29
  40342c:	fd000334 	str	d20, [x25]
  403430:	6b14037f 	cmp	w27, w20
  403434:	54fff86c 	b.gt	403340 <_Z9cache_kijILi4ELi16EEviiiiiiPfiS0_iS0_i+0x820>
  403438:	b940abf0 	ldr	w16, [sp, #168]
  40343c:	110012b5 	add	w21, w21, #0x4
  403440:	b940b3f1 	ldr	w17, [sp, #176]
  403444:	b940d3fe 	ldr	w30, [sp, #208]
  403448:	b940d7f6 	ldr	w22, [sp, #212]
  40344c:	b940b7f2 	ldr	w18, [sp, #180]
  403450:	0b1e0219 	add	w25, w16, w30
  403454:	0b16022c 	add	w12, w17, w22
  403458:	b900abf9 	str	w25, [sp, #168]
  40345c:	b900b3ec 	str	w12, [sp, #176]
  403460:	6b1202bf 	cmp	w21, w18
  403464:	54ffed6b 	b.lt	403210 <_Z9cache_kijILi4ELi16EEviiiiiiPfiS0_iS0_i+0x6f0>  // b.tstop
  403468:	f940d7f4 	ldr	x20, [sp, #424]
  40346c:	2a1b03f5 	mov	w21, w27
  403470:	b941b7f3 	ldr	w19, [sp, #436]
  403474:	b941bbf6 	ldr	w22, [sp, #440]
  403478:	b941bffb 	ldr	w27, [sp, #444]
  40347c:	f9406fea 	ldr	x10, [sp, #216]
  403480:	f90013ea 	str	x10, [sp, #32]
  403484:	f9407beb 	ldr	x11, [sp, #240]
  403488:	f90003eb 	str	x11, [sp]
  40348c:	f94083e8 	ldr	x8, [sp, #256]
  403490:	f9000be8 	str	x8, [sp, #16]
  403494:	b940b7e6 	ldr	w6, [sp, #180]
  403498:	2a1503e7 	mov	w7, w21
  40349c:	b9410fe2 	ldr	w2, [sp, #268]
  4034a0:	2a1b03e4 	mov	w4, w27
  4034a4:	b94167ee 	ldr	w14, [sp, #356]
  4034a8:	2a1303e3 	mov	w3, w19
  4034ac:	b94163e9 	ldr	w9, [sp, #352]
  4034b0:	2a1703e5 	mov	w5, w23
  4034b4:	b9411fe0 	ldr	w0, [sp, #284]
  4034b8:	b940fbf9 	ldr	w25, [sp, #248]
  4034bc:	b9000bee 	str	w14, [sp, #8]
  4034c0:	b9001be9 	str	w9, [sp, #24]
  4034c4:	2a1903e1 	mov	w1, w25
  4034c8:	b9002bf8 	str	w24, [sp, #40]
  4034cc:	97fffaa1 	bl	401f50 <_Z10tail_blockILi4ELi16EEviiiiiiiiPfiS0_iS0_i>
  4034d0:	f94067e2 	ldr	x2, [sp, #200]
  4034d4:	f94073e7 	ldr	x7, [sp, #224]
  4034d8:	f94097e1 	ldr	x1, [sp, #296]
  4034dc:	b940efe3 	ldr	w3, [sp, #236]
  4034e0:	b9410bed 	ldr	w13, [sp, #264]
  4034e4:	8b010046 	add	x6, x2, x1
  4034e8:	0b030324 	add	w4, w25, w3
  4034ec:	8b0100e0 	add	x0, x7, x1
  4034f0:	f90067e6 	str	x6, [sp, #200]
  4034f4:	4b0302d6 	sub	w22, w22, w3
  4034f8:	f90073e0 	str	x0, [sp, #224]
  4034fc:	b900fbe4 	str	w4, [sp, #248]
  403500:	6b0401bf 	cmp	w13, w4
  403504:	54ffd34c 	b.gt	402f6c <_Z9cache_kijILi4ELi16EEviiiiiiPfiS0_iS0_i+0x44c>
  403508:	a958aff5 	ldp	x21, x11, [sp, #392]
  40350c:	aa1403fe 	mov	x30, x20
  403510:	f940cfee 	ldr	x14, [sp, #408]
  403514:	b9411fe8 	ldr	w8, [sp, #284]
  403518:	b941a3ea 	ldr	w10, [sp, #416]
  40351c:	b941a7e9 	ldr	w9, [sp, #420]
  403520:	b941b3f2 	ldr	w18, [sp, #432]
  403524:	b940ebef 	ldr	w15, [sp, #232]
  403528:	0b120108 	add	w8, w8, w18
  40352c:	b94153f0 	ldr	w16, [sp, #336]
  403530:	4b12014a 	sub	w10, w10, w18
  403534:	b94157ec 	ldr	w12, [sp, #340]
  403538:	b940fff3 	ldr	w19, [sp, #252]
  40353c:	0b1001f1 	add	w17, w15, w16
  403540:	b900ebf1 	str	w17, [sp, #232]
  403544:	0b0c0129 	add	w9, w9, w12
  403548:	6b08027f 	cmp	w19, w8
  40354c:	54ffbd4c 	b.gt	402cf4 <_Z9cache_kijILi4ELi16EEviiiiiiPfiS0_iS0_i+0x1d4>
  403550:	9105f3f7 	add	x23, sp, #0x17c
  403554:	b9410fed 	ldr	w13, [sp, #268]
  403558:	f9408bfb 	ldr	x27, [sp, #272]
  40355c:	aa0e03ef 	mov	x15, x14
  403560:	f940bfe5 	ldr	x5, [sp, #376]
  403564:	2a1803f3 	mov	w19, w24
  403568:	b9411be7 	ldr	w7, [sp, #280]
  40356c:	aa1503f0 	mov	x16, x21
  403570:	297ed2f6 	ldp	w22, w20, [x23, #-12]
  403574:	aa0b03ee 	mov	x14, x11
  403578:	29408ef9 	ldp	w25, w3, [x23, #4]
  40357c:	2a1203f8 	mov	w24, w18
  403580:	0b0301ad 	add	w13, w13, w3
  403584:	4b0302d6 	sub	w22, w22, w3
  403588:	0b1400e7 	add	w7, w7, w20
  40358c:	8b05037b 	add	x27, x27, x5
  403590:	6b0d033f 	cmp	w25, w13
  403594:	54ffb68c 	b.gt	402c64 <_Z9cache_kijILi4ELi16EEviiiiiiPfiS0_iS0_i+0x144>
  403598:	fd404be8 	ldr	d8, [sp, #144]
  40359c:	aa1c03f7 	mov	x23, x28
  4035a0:	f94063e0 	ldr	x0, [sp, #192]
  4035a4:	97fff48f 	bl	4007e0 <free@plt>
  4035a8:	a9437bfd 	ldp	x29, x30, [sp, #48]
  4035ac:	aa1703e0 	mov	x0, x23
  4035b0:	a94453f3 	ldp	x19, x20, [sp, #64]
  4035b4:	a9455bf5 	ldp	x21, x22, [sp, #80]
  4035b8:	a94663f7 	ldp	x23, x24, [sp, #96]
  4035bc:	a9476bf9 	ldp	x25, x26, [sp, #112]
  4035c0:	a94873fb 	ldp	x27, x28, [sp, #128]
  4035c4:	910783ff 	add	sp, sp, #0x1e0
  4035c8:	17fff486 	b	4007e0 <free@plt>
  4035cc:	d503201f 	nop

00000000004035d0 <_Z9cache_ijkILi4ELi16EEviiiiiiPfiS0_iS0_i>:
  4035d0:	d10743ff 	sub	sp, sp, #0x1d0
  4035d4:	a9037bfd 	stp	x29, x30, [sp, #48]
  4035d8:	9100c3fd 	add	x29, sp, #0x30
  4035dc:	a90453f3 	stp	x19, x20, [sp, #64]
  4035e0:	2a0503f3 	mov	w19, w5
  4035e4:	2a0103f4 	mov	w20, w1
  4035e8:	a9055bf5 	stp	x21, x22, [sp, #80]
  4035ec:	2a0303f6 	mov	w22, w3
  4035f0:	b941dbf5 	ldr	w21, [sp, #472]
  4035f4:	b90117e5 	str	w5, [sp, #276]
  4035f8:	1b037ca5 	mul	w5, w5, w3
  4035fc:	f940ebe3 	ldr	x3, [sp, #464]
  403600:	a90663f7 	stp	x23, x24, [sp, #96]
  403604:	2a0403f7 	mov	w23, w4
  403608:	a9076bf9 	stp	x25, x26, [sp, #112]
  40360c:	2a0003f9 	mov	w25, w0
  403610:	937e7ca1 	sbfiz	x1, x5, #2, #32
  403614:	b90163e0 	str	w0, [sp, #352]
  403618:	f940f3e0 	ldr	x0, [sp, #480]
  40361c:	a90873fb 	stp	x27, x28, [sp, #128]
  403620:	b941ebf8 	ldr	w24, [sp, #488]
  403624:	b900abe7 	str	w7, [sp, #168]
  403628:	f9006be0 	str	x0, [sp, #208]
  40362c:	d2800800 	mov	x0, #0x40                  	// #64
  403630:	b9011fe2 	str	w2, [sp, #284]
  403634:	f90093e3 	str	x3, [sp, #288]
  403638:	f900afe6 	str	x6, [sp, #344]
  40363c:	b90167f5 	str	w21, [sp, #356]
  403640:	97fff460 	bl	4007c0 <aligned_alloc@plt>
  403644:	1b137ee1 	mul	w1, w23, w19
  403648:	f90067e0 	str	x0, [sp, #200]
  40364c:	d2800800 	mov	x0, #0x40                  	// #64
  403650:	937e7c21 	sbfiz	x1, x1, #2, #32
  403654:	97fff45b 	bl	4007c0 <aligned_alloc@plt>
  403658:	aa0003fb 	mov	x27, x0
  40365c:	7100033f 	cmp	w25, #0x0
  403660:	540058ad 	b.le	404174 <_Z9cache_ijkILi4ELi16EEviiiiiiPfiS0_iS0_i+0xba4>
  403664:	b940abee 	ldr	w14, [sp, #168]
  403668:	1b137ea6 	mul	w6, w21, w19
  40366c:	5280018a 	mov	w10, #0xc                   	// #12
  403670:	f00000d3 	adrp	x19, 41e000 <_Z21register_block_vv_3x4ILi3ELi16EEviPKfS1_Pfi+0xe0>
  403674:	2a1903e4 	mov	w4, w25
  403678:	2a1503e2 	mov	w2, w21
  40367c:	531e75c9 	lsl	w9, w14, #2
  403680:	1b187ec7 	mul	w7, w22, w24
  403684:	1b0e7ed2 	mul	w18, w22, w14
  403688:	937e7e99 	sbfiz	x25, x20, #2, #32
  40368c:	9b2a7dcc 	smull	x12, w14, w10
  403690:	937e7f15 	sbfiz	x21, x24, #2, #32
  403694:	2a1703fc 	mov	w28, w23
  403698:	fd004be8 	str	d8, [sp, #144]
  40369c:	fd41ea68 	ldr	d8, [x19, #976]
  4036a0:	2a1403f3 	mov	w19, w20
  4036a4:	2a0403f4 	mov	w20, w4
  4036a8:	93407cc8 	sxtw	x8, w6
  4036ac:	937e7c4b 	sbfiz	x11, x2, #2, #32
  4036b0:	2a1603fa 	mov	w26, w22
  4036b4:	93407d2f 	sxtw	x15, w9
  4036b8:	93407dd0 	sxtw	x16, w14
  4036bc:	937d7dd1 	sbfiz	x17, x14, #3, #32
  4036c0:	531e771e 	lsl	w30, w24, #2
  4036c4:	93407ef6 	sxtw	x22, w23
  4036c8:	b900e3fe 	str	w30, [sp, #224]
  4036cc:	f90077ef 	str	x15, [sp, #232]
  4036d0:	b900f7ff 	str	wzr, [sp, #244]
  4036d4:	b9010fff 	str	wzr, [sp, #268]
  4036d8:	b90113ff 	str	wzr, [sp, #272]
  4036dc:	a912c3ec 	stp	x12, x16, [sp, #296]
  4036e0:	a913a3f1 	stp	x17, x8, [sp, #312]
  4036e4:	b90153e7 	str	w7, [sp, #336]
  4036e8:	b90157f2 	str	w18, [sp, #340]
  4036ec:	f900b7f6 	str	x22, [sp, #360]
  4036f0:	f900bbeb 	str	x11, [sp, #368]
  4036f4:	b90183ee 	str	w14, [sp, #384]
  4036f8:	6b1a029f 	cmp	w20, w26
  4036fc:	1a9ad297 	csel	w23, w20, w26, le
  403700:	b900f3f7 	str	w23, [sp, #240]
  403704:	710002ff 	cmp	w23, #0x0
  403708:	54000ced 	b.le	4038a4 <_Z9cache_ijkILi4ELi16EEviiiiiiPfiS0_iS0_i+0x2d4>
  40370c:	f9406be0 	ldr	x0, [sp, #208]
  403710:	72000ae5 	ands	w5, w23, #0x7
  403714:	b940f7e3 	ldr	w3, [sp, #244]
  403718:	52800016 	mov	w22, #0x0                   	// #0
  40371c:	8b23c80d 	add	x13, x0, w3, sxtw #2
  403720:	54000740 	b.eq	403808 <_Z9cache_ijkILi4ELi16EEviiiiiiPfiS0_iS0_i+0x238>  // b.none
  403724:	710004bf 	cmp	w5, #0x1
  403728:	540005e0 	b.eq	4037e4 <_Z9cache_ijkILi4ELi16EEviiiiiiPfiS0_iS0_i+0x214>  // b.none
  40372c:	710008bf 	cmp	w5, #0x2
  403730:	540004e0 	b.eq	4037cc <_Z9cache_ijkILi4ELi16EEviiiiiiPfiS0_iS0_i+0x1fc>  // b.none
  403734:	71000cbf 	cmp	w5, #0x3
  403738:	540003e0 	b.eq	4037b4 <_Z9cache_ijkILi4ELi16EEviiiiiiPfiS0_iS0_i+0x1e4>  // b.none
  40373c:	710010bf 	cmp	w5, #0x4
  403740:	540002e0 	b.eq	40379c <_Z9cache_ijkILi4ELi16EEviiiiiiPfiS0_iS0_i+0x1cc>  // b.none
  403744:	710014bf 	cmp	w5, #0x5
  403748:	540001e0 	b.eq	403784 <_Z9cache_ijkILi4ELi16EEviiiiiiPfiS0_iS0_i+0x1b4>  // b.none
  40374c:	710018bf 	cmp	w5, #0x6
  403750:	540000e0 	b.eq	40376c <_Z9cache_ijkILi4ELi16EEviiiiiiPfiS0_iS0_i+0x19c>  // b.none
  403754:	aa0d03e0 	mov	x0, x13
  403758:	aa1903e2 	mov	x2, x25
  40375c:	52800001 	mov	w1, #0x0                   	// #0
  403760:	97fff428 	bl	400800 <memset@plt>
  403764:	8b15000d 	add	x13, x0, x21
  403768:	52800036 	mov	w22, #0x1                   	// #1
  40376c:	aa0d03e0 	mov	x0, x13
  403770:	aa1903e2 	mov	x2, x25
  403774:	52800001 	mov	w1, #0x0                   	// #0
  403778:	110006d6 	add	w22, w22, #0x1
  40377c:	97fff421 	bl	400800 <memset@plt>
  403780:	8b15000d 	add	x13, x0, x21
  403784:	aa0d03e0 	mov	x0, x13
  403788:	aa1903e2 	mov	x2, x25
  40378c:	52800001 	mov	w1, #0x0                   	// #0
  403790:	110006d6 	add	w22, w22, #0x1
  403794:	97fff41b 	bl	400800 <memset@plt>
  403798:	8b15000d 	add	x13, x0, x21
  40379c:	aa0d03e0 	mov	x0, x13
  4037a0:	aa1903e2 	mov	x2, x25
  4037a4:	52800001 	mov	w1, #0x0                   	// #0
  4037a8:	110006d6 	add	w22, w22, #0x1
  4037ac:	97fff415 	bl	400800 <memset@plt>
  4037b0:	8b15000d 	add	x13, x0, x21
  4037b4:	aa0d03e0 	mov	x0, x13
  4037b8:	aa1903e2 	mov	x2, x25
  4037bc:	52800001 	mov	w1, #0x0                   	// #0
  4037c0:	110006d6 	add	w22, w22, #0x1
  4037c4:	97fff40f 	bl	400800 <memset@plt>
  4037c8:	8b15000d 	add	x13, x0, x21
  4037cc:	aa0d03e0 	mov	x0, x13
  4037d0:	aa1903e2 	mov	x2, x25
  4037d4:	52800001 	mov	w1, #0x0                   	// #0
  4037d8:	110006d6 	add	w22, w22, #0x1
  4037dc:	97fff409 	bl	400800 <memset@plt>
  4037e0:	8b15000d 	add	x13, x0, x21
  4037e4:	aa0d03e0 	mov	x0, x13
  4037e8:	aa1903e2 	mov	x2, x25
  4037ec:	52800001 	mov	w1, #0x0                   	// #0
  4037f0:	97fff404 	bl	400800 <memset@plt>
  4037f4:	b940f3eb 	ldr	w11, [sp, #240]
  4037f8:	110006d6 	add	w22, w22, #0x1
  4037fc:	8b15000d 	add	x13, x0, x21
  403800:	6b16017f 	cmp	w11, w22
  403804:	54000500 	b.eq	4038a4 <_Z9cache_ijkILi4ELi16EEviiiiiiPfiS0_iS0_i+0x2d4>  // b.none
  403808:	b900abfc 	str	w28, [sp, #168]
  40380c:	aa0d03e0 	mov	x0, x13
  403810:	aa1903e2 	mov	x2, x25
  403814:	52800001 	mov	w1, #0x0                   	// #0
  403818:	97fff3fa 	bl	400800 <memset@plt>
  40381c:	aa1903e2 	mov	x2, x25
  403820:	52800001 	mov	w1, #0x0                   	// #0
  403824:	8b150000 	add	x0, x0, x21
  403828:	97fff3f6 	bl	400800 <memset@plt>
  40382c:	aa1903e2 	mov	x2, x25
  403830:	52800001 	mov	w1, #0x0                   	// #0
  403834:	8b150000 	add	x0, x0, x21
  403838:	97fff3f2 	bl	400800 <memset@plt>
  40383c:	aa1903e2 	mov	x2, x25
  403840:	52800001 	mov	w1, #0x0                   	// #0
  403844:	8b150000 	add	x0, x0, x21
  403848:	97fff3ee 	bl	400800 <memset@plt>
  40384c:	aa1903e2 	mov	x2, x25
  403850:	52800001 	mov	w1, #0x0                   	// #0
  403854:	8b150000 	add	x0, x0, x21
  403858:	97fff3ea 	bl	400800 <memset@plt>
  40385c:	aa1903e2 	mov	x2, x25
  403860:	52800001 	mov	w1, #0x0                   	// #0
  403864:	8b150000 	add	x0, x0, x21
  403868:	97fff3e6 	bl	400800 <memset@plt>
  40386c:	aa1903e2 	mov	x2, x25
  403870:	52800001 	mov	w1, #0x0                   	// #0
  403874:	8b150000 	add	x0, x0, x21
  403878:	97fff3e2 	bl	400800 <memset@plt>
  40387c:	aa1903e2 	mov	x2, x25
  403880:	8b150000 	add	x0, x0, x21
  403884:	52800001 	mov	w1, #0x0                   	// #0
  403888:	97fff3de 	bl	400800 <memset@plt>
  40388c:	b940f3e3 	ldr	w3, [sp, #240]
  403890:	110022d6 	add	w22, w22, #0x8
  403894:	8b15000d 	add	x13, x0, x21
  403898:	6b16007f 	cmp	w3, w22
  40389c:	54fffb81 	b.ne	40380c <_Z9cache_ijkILi4ELi16EEviiiiiiPfiS0_iS0_i+0x23c>  // b.any
  4038a0:	b940abfc 	ldr	w28, [sp, #168]
  4038a4:	b940f3f0 	ldr	w16, [sp, #240]
  4038a8:	6b1003f1 	negs	w17, w16
  4038ac:	1200061e 	and	w30, w16, #0x3
  4038b0:	12000621 	and	w1, w17, #0x3
  4038b4:	5a8147c4 	csneg	w4, w30, w1, mi  // mi = first
  4038b8:	4b040202 	sub	w2, w16, w4
  4038bc:	b900b7e2 	str	w2, [sp, #180]
  4038c0:	7100027f 	cmp	w19, #0x0
  4038c4:	5400438d 	b.le	404134 <_Z9cache_ijkILi4ELi16EEviiiiiiPfiS0_iS0_i+0xb64>
  4038c8:	2a1303f1 	mov	w17, w19
  4038cc:	2a1c03ee 	mov	w14, w28
  4038d0:	f900bff9 	str	x25, [sp, #376]
  4038d4:	2a1803f9 	mov	w25, w24
  4038d8:	52800010 	mov	w16, #0x0                   	// #0
  4038dc:	f90063ff 	str	xzr, [sp, #192]
  4038e0:	b90187f4 	str	w20, [sp, #388]
  4038e4:	f900c7f5 	str	x21, [sp, #392]
  4038e8:	b90193fa 	str	w26, [sp, #400]
  4038ec:	6b0e023f 	cmp	w17, w14
  4038f0:	b9411fe7 	ldr	w7, [sp, #284]
  4038f4:	1a8ed238 	csel	w24, w17, w14, le
  4038f8:	6b1803f4 	negs	w20, w24
  4038fc:	12000f15 	and	w21, w24, #0xf
  403900:	12000e86 	and	w6, w20, #0xf
  403904:	5a8646aa 	csneg	w10, w21, w6, mi  // mi = first
  403908:	4b0a0317 	sub	w23, w24, w10
  40390c:	710000ff 	cmp	w7, #0x0
  403910:	54003f6d 	b.le	4040fc <_Z9cache_ijkILi4ELi16EEviiiiiiPfiS0_iS0_i+0xb2c>
  403914:	f940affc 	ldr	x28, [sp, #344]
  403918:	2a1803f4 	mov	w20, w24
  40391c:	b98117eb 	ldrsw	x11, [sp, #276]
  403920:	2a1003f6 	mov	w22, w16
  403924:	b98113fa 	ldrsw	x26, [sp, #272]
  403928:	b0000168 	adrp	x8, 430000 <puts@GLIBC_2.17>
  40392c:	b9019bf3 	str	w19, [sp, #408]
  403930:	9102210d 	add	x13, x8, #0x88
  403934:	f94063f3 	ldr	x19, [sp, #192]
  403938:	f9006fed 	str	x13, [sp, #216]
  40393c:	f9007ff3 	str	x19, [sp, #248]
  403940:	f90083fa 	str	x26, [sp, #256]
  403944:	b9010be7 	str	w7, [sp, #264]
  403948:	b9011bff 	str	wzr, [sp, #280]
  40394c:	f900a7eb 	str	x11, [sp, #328]
  403950:	b90197f1 	str	w17, [sp, #404]
  403954:	b9019fee 	str	w14, [sp, #412]
  403958:	b9410bee 	ldr	w14, [sp, #264]
  40395c:	b94117e9 	ldr	w9, [sp, #276]
  403960:	b940b7ec 	ldr	w12, [sp, #180]
  403964:	6b0901df 	cmp	w14, w9
  403968:	1a89d1d5 	csel	w21, w14, w9, le
  40396c:	7100019f 	cmp	w12, #0x0
  403970:	54000f6d 	b.le	403b5c <_Z9cache_ijkILi4ELi16EEviiiiiiPfiS0_iS0_i+0x58c>
  403974:	f94067e0 	ldr	x0, [sp, #200]
  403978:	531e76af 	lsl	w15, w21, #2
  40397c:	f94083f0 	ldr	x16, [sp, #256]
  403980:	93407eb2 	sxtw	x18, w21
  403984:	b901a7f9 	str	w25, [sp, #420]
  403988:	937e7de5 	sbfiz	x5, x15, #2, #32
  40398c:	a952ebf9 	ldp	x25, x26, [sp, #296]
  403990:	cb1213e3 	neg	x3, x18, lsl #4
  403994:	8b050011 	add	x17, x0, x5
  403998:	b900bbf7 	str	w23, [sp, #184]
  40399c:	f9409ff7 	ldr	x23, [sp, #312]
  4039a0:	aa0503f3 	mov	x19, x5
  4039a4:	f90057fb 	str	x27, [sp, #168]
  4039a8:	aa1003fb 	mov	x27, x16
  4039ac:	b900e7f4 	str	w20, [sp, #228]
  4039b0:	aa0303f4 	mov	x20, x3
  4039b4:	b901a3f6 	str	w22, [sp, #416]
  4039b8:	aa1103f6 	mov	x22, x17
  4039bc:	52800018 	mov	w24, #0x0                   	// #0
  4039c0:	9106c3e1 	add	x1, sp, #0x1b0
  4039c4:	52800020 	mov	w0, #0x1                   	// #1
  4039c8:	97fff39a 	bl	400830 <clock_gettime@plt>
  4039cc:	8b1402c8 	add	x8, x22, x20
  4039d0:	710002bf 	cmp	w21, #0x0
  4039d4:	540008cd 	b.le	403aec <_Z9cache_ijkILi4ELi16EEviiiiiiPfiS0_iS0_i+0x51c>
  4039d8:	cb0802de 	sub	x30, x22, x8
  4039dc:	d37ef764 	lsl	x4, x27, #2
  4039e0:	d10043c2 	sub	x2, x30, #0x10
  4039e4:	8b040381 	add	x1, x28, x4
  4039e8:	d344fc46 	lsr	x6, x2, #4
  4039ec:	910004ca 	add	x10, x6, #0x1
  4039f0:	f2400547 	ands	x7, x10, #0x3
  4039f4:	540003e0 	b.eq	403a70 <_Z9cache_ijkILi4ELi16EEviiiiiiPfiS0_iS0_i+0x4a0>  // b.none
  4039f8:	f10004ff 	cmp	x7, #0x1
  4039fc:	54000260 	b.eq	403a48 <_Z9cache_ijkILi4ELi16EEviiiiiiPfiS0_iS0_i+0x478>  // b.none
  403a00:	f10008ff 	cmp	x7, #0x2
  403a04:	54000120 	b.eq	403a28 <_Z9cache_ijkILi4ELi16EEviiiiiiPfiS0_iS0_i+0x458>  // b.none
  403a08:	bc7a7822 	ldr	s2, [x1, x26, lsl #2]
  403a0c:	bc776821 	ldr	s1, [x1, x23]
  403a10:	bc796820 	ldr	s0, [x1, x25]
  403a14:	91001021 	add	x1, x1, #0x4
  403a18:	bc646b83 	ldr	s3, [x28, x4]
  403a1c:	2d010101 	stp	s1, s0, [x8, #8]
  403a20:	2d000903 	stp	s3, s2, [x8]
  403a24:	91004108 	add	x8, x8, #0x10
  403a28:	bc7a7824 	ldr	s4, [x1, x26, lsl #2]
  403a2c:	bc776825 	ldr	s5, [x1, x23]
  403a30:	bc796826 	ldr	s6, [x1, x25]
  403a34:	91001021 	add	x1, x1, #0x4
  403a38:	bc5fc027 	ldur	s7, [x1, #-4]
  403a3c:	2d011905 	stp	s5, s6, [x8, #8]
  403a40:	2d001107 	stp	s7, s4, [x8]
  403a44:	91004108 	add	x8, x8, #0x10
  403a48:	bc7a7830 	ldr	s16, [x1, x26, lsl #2]
  403a4c:	bc776831 	ldr	s17, [x1, x23]
  403a50:	bc796832 	ldr	s18, [x1, x25]
  403a54:	91001021 	add	x1, x1, #0x4
  403a58:	bc5fc033 	ldur	s19, [x1, #-4]
  403a5c:	2d014911 	stp	s17, s18, [x8, #8]
  403a60:	2d004113 	stp	s19, s16, [x8]
  403a64:	91004108 	add	x8, x8, #0x10
  403a68:	eb16011f 	cmp	x8, x22
  403a6c:	54000400 	b.eq	403aec <_Z9cache_ijkILi4ELi16EEviiiiiiPfiS0_iS0_i+0x51c>  // b.none
  403a70:	9100102d 	add	x13, x1, #0x4
  403a74:	9100202b 	add	x11, x1, #0x8
  403a78:	9100302e 	add	x14, x1, #0xc
  403a7c:	bc7a7835 	ldr	s21, [x1, x26, lsl #2]
  403a80:	2d407834 	ldp	s20, s30, [x1]
  403a84:	9100c109 	add	x9, x8, #0x30
  403a88:	2d410c3f 	ldp	s31, s3, [x1, #8]
  403a8c:	bc776836 	ldr	s22, [x1, x23]
  403a90:	bc796837 	ldr	s23, [x1, x25]
  403a94:	91004021 	add	x1, x1, #0x10
  403a98:	bc7a79b8 	ldr	s24, [x13, x26, lsl #2]
  403a9c:	bc7769b9 	ldr	s25, [x13, x23]
  403aa0:	bc7969ba 	ldr	s26, [x13, x25]
  403aa4:	bc7a797b 	ldr	s27, [x11, x26, lsl #2]
  403aa8:	bc77697c 	ldr	s28, [x11, x23]
  403aac:	bc79697d 	ldr	s29, [x11, x25]
  403ab0:	bc7a79c2 	ldr	s2, [x14, x26, lsl #2]
  403ab4:	bc7769c1 	ldr	s1, [x14, x23]
  403ab8:	bc7969c0 	ldr	s0, [x14, x25]
  403abc:	2d005514 	stp	s20, s21, [x8]
  403ac0:	2d015d16 	stp	s22, s23, [x8, #8]
  403ac4:	2d02611e 	stp	s30, s24, [x8, #16]
  403ac8:	2d036919 	stp	s25, s26, [x8, #24]
  403acc:	2d046d1f 	stp	s31, s27, [x8, #32]
  403ad0:	2d05751c 	stp	s28, s29, [x8, #40]
  403ad4:	91010108 	add	x8, x8, #0x40
  403ad8:	bc1f0103 	stur	s3, [x8, #-16]
  403adc:	2d008522 	stp	s2, s1, [x9, #4]
  403ae0:	bd000d20 	str	s0, [x9, #12]
  403ae4:	eb16011f 	cmp	x8, x22
  403ae8:	54fffc41 	b.ne	403a70 <_Z9cache_ijkILi4ELi16EEviiiiiiPfiS0_iS0_i+0x4a0>  // b.any
  403aec:	910703e1 	add	x1, sp, #0x1c0
  403af0:	52800020 	mov	w0, #0x1                   	// #1
  403af4:	97fff34f 	bl	400830 <clock_gettime@plt>
  403af8:	11001318 	add	w24, w24, #0x4
  403afc:	f940dff2 	ldr	x18, [sp, #440]
  403b00:	8b1302d6 	add	x22, x22, x19
  403b04:	f940e7e5 	ldr	x5, [sp, #456]
  403b08:	f940dbe4 	ldr	x4, [sp, #432]
  403b0c:	cb1200a3 	sub	x3, x5, x18
  403b10:	f940e3e0 	ldr	x0, [sp, #448]
  403b14:	9e620064 	scvtf	d4, x3
  403b18:	f9406fec 	ldr	x12, [sp, #216]
  403b1c:	cb040002 	sub	x2, x0, x4
  403b20:	f94077ef 	ldr	x15, [sp, #232]
  403b24:	9e620046 	scvtf	d6, x2
  403b28:	1f481887 	fmadd	d7, d4, d8, d6
  403b2c:	fd400185 	ldr	d5, [x12]
  403b30:	b940b7e6 	ldr	w6, [sp, #180]
  403b34:	8b0f037b 	add	x27, x27, x15
  403b38:	1e6728b0 	fadd	d16, d5, d7
  403b3c:	fd000190 	str	d16, [x12]
  403b40:	6b1800df 	cmp	w6, w24
  403b44:	54fff3ec 	b.gt	4039c0 <_Z9cache_ijkILi4ELi16EEviiiiiiPfiS0_iS0_i+0x3f0>
  403b48:	f94057fb 	ldr	x27, [sp, #168]
  403b4c:	b940bbf7 	ldr	w23, [sp, #184]
  403b50:	b940e7f4 	ldr	w20, [sp, #228]
  403b54:	b941a3f6 	ldr	w22, [sp, #416]
  403b58:	b941a7f9 	ldr	w25, [sp, #420]
  403b5c:	9106c3e1 	add	x1, sp, #0x1b0
  403b60:	52800020 	mov	w0, #0x1                   	// #1
  403b64:	97fff333 	bl	400830 <clock_gettime@plt>
  403b68:	710002ff 	cmp	w23, #0x0
  403b6c:	5400108d 	b.le	403d7c <_Z9cache_ijkILi4ELi16EEviiiiiiPfiS0_iS0_i+0x7ac>
  403b70:	f9407ff3 	ldr	x19, [sp, #248]
  403b74:	510006b0 	sub	w16, w21, #0x1
  403b78:	f94093fa 	ldr	x26, [sp, #288]
  403b7c:	91000611 	add	x17, x16, #0x1
  403b80:	f940bbeb 	ldr	x11, [sp, #368]
  403b84:	937a7ea9 	sbfiz	x9, x21, #6, #32
  403b88:	aa1b03e3 	mov	x3, x27
  403b8c:	d37ae627 	lsl	x7, x17, #6
  403b90:	8b130b44 	add	x4, x26, x19, lsl #2
  403b94:	d2800005 	mov	x5, #0x0                   	// #0
  403b98:	710002bf 	cmp	w21, #0x0
  403b9c:	54000e8d 	b.le	403d6c <_Z9cache_ijkILi4ELi16EEviiiiiiPfiS0_iS0_i+0x79c>
  403ba0:	d101013e 	sub	x30, x9, #0x40
  403ba4:	8b09006a 	add	x10, x3, x9
  403ba8:	aa0403e1 	mov	x1, x4
  403bac:	aa0303f8 	mov	x24, x3
  403bb0:	d346ffc8 	lsr	x8, x30, #6
  403bb4:	9100050d 	add	x13, x8, #0x1
  403bb8:	f24009ae 	ands	x14, x13, #0x7
  403bbc:	54000720 	b.eq	403ca0 <_Z9cache_ijkILi4ELi16EEviiiiiiPfiS0_iS0_i+0x6d0>  // b.none
  403bc0:	f10005df 	cmp	x14, #0x1
  403bc4:	540005e0 	b.eq	403c80 <_Z9cache_ijkILi4ELi16EEviiiiiiPfiS0_iS0_i+0x6b0>  // b.none
  403bc8:	f10009df 	cmp	x14, #0x2
  403bcc:	540004e0 	b.eq	403c68 <_Z9cache_ijkILi4ELi16EEviiiiiiPfiS0_iS0_i+0x698>  // b.none
  403bd0:	f1000ddf 	cmp	x14, #0x3
  403bd4:	540003e0 	b.eq	403c50 <_Z9cache_ijkILi4ELi16EEviiiiiiPfiS0_iS0_i+0x680>  // b.none
  403bd8:	f10011df 	cmp	x14, #0x4
  403bdc:	540002e0 	b.eq	403c38 <_Z9cache_ijkILi4ELi16EEviiiiiiPfiS0_iS0_i+0x668>  // b.none
  403be0:	f10015df 	cmp	x14, #0x5
  403be4:	540001e0 	b.eq	403c20 <_Z9cache_ijkILi4ELi16EEviiiiiiPfiS0_iS0_i+0x650>  // b.none
  403be8:	f10019df 	cmp	x14, #0x6
  403bec:	540000e0 	b.eq	403c08 <_Z9cache_ijkILi4ELi16EEviiiiiiPfiS0_iS0_i+0x638>  // b.none
  403bf0:	ad404891 	ldp	q17, q18, [x4]
  403bf4:	91010078 	add	x24, x3, #0x40
  403bf8:	8b0b0081 	add	x1, x4, x11
  403bfc:	ad004871 	stp	q17, q18, [x3]
  403c00:	ad415493 	ldp	q19, q21, [x4, #32]
  403c04:	ad015473 	stp	q19, q21, [x3, #32]
  403c08:	ad405c36 	ldp	q22, q23, [x1]
  403c0c:	ad005f16 	stp	q22, q23, [x24]
  403c10:	ad416438 	ldp	q24, q25, [x1, #32]
  403c14:	8b0b0021 	add	x1, x1, x11
  403c18:	ad016718 	stp	q24, q25, [x24, #32]
  403c1c:	91010318 	add	x24, x24, #0x40
  403c20:	ad406c3a 	ldp	q26, q27, [x1]
  403c24:	ad006f1a 	stp	q26, q27, [x24]
  403c28:	ad41743c 	ldp	q28, q29, [x1, #32]
  403c2c:	8b0b0021 	add	x1, x1, x11
  403c30:	ad01771c 	stp	q28, q29, [x24, #32]
  403c34:	91010318 	add	x24, x24, #0x40
  403c38:	ad407834 	ldp	q20, q30, [x1]
  403c3c:	ad007b14 	stp	q20, q30, [x24]
  403c40:	ad410c3f 	ldp	q31, q3, [x1, #32]
  403c44:	8b0b0021 	add	x1, x1, x11
  403c48:	ad010f1f 	stp	q31, q3, [x24, #32]
  403c4c:	91010318 	add	x24, x24, #0x40
  403c50:	ad400422 	ldp	q2, q1, [x1]
  403c54:	ad000702 	stp	q2, q1, [x24]
  403c58:	ad411020 	ldp	q0, q4, [x1, #32]
  403c5c:	8b0b0021 	add	x1, x1, x11
  403c60:	ad011300 	stp	q0, q4, [x24, #32]
  403c64:	91010318 	add	x24, x24, #0x40
  403c68:	ad401825 	ldp	q5, q6, [x1]
  403c6c:	ad001b05 	stp	q5, q6, [x24]
  403c70:	ad414027 	ldp	q7, q16, [x1, #32]
  403c74:	8b0b0021 	add	x1, x1, x11
  403c78:	ad014307 	stp	q7, q16, [x24, #32]
  403c7c:	91010318 	add	x24, x24, #0x40
  403c80:	ad404831 	ldp	q17, q18, [x1]
  403c84:	ad004b11 	stp	q17, q18, [x24]
  403c88:	ad415433 	ldp	q19, q21, [x1, #32]
  403c8c:	8b0b0021 	add	x1, x1, x11
  403c90:	ad015713 	stp	q19, q21, [x24, #32]
  403c94:	91010318 	add	x24, x24, #0x40
  403c98:	eb18015f 	cmp	x10, x24
  403c9c:	54000660 	b.eq	403d68 <_Z9cache_ijkILi4ELi16EEviiiiiiPfiS0_iS0_i+0x798>  // b.none
  403ca0:	ad405c36 	ldp	q22, q23, [x1]
  403ca4:	8b0b002c 	add	x12, x1, x11
  403ca8:	91010312 	add	x18, x24, #0x40
  403cac:	8b0b0180 	add	x0, x12, x11
  403cb0:	91020310 	add	x16, x24, #0x80
  403cb4:	8b0b0006 	add	x6, x0, x11
  403cb8:	ad005f16 	stp	q22, q23, [x24]
  403cbc:	9103030f 	add	x15, x24, #0xc0
  403cc0:	8b0b00c2 	add	x2, x6, x11
  403cc4:	ad416438 	ldp	q24, q25, [x1, #32]
  403cc8:	91040311 	add	x17, x24, #0x100
  403ccc:	8b0b0053 	add	x19, x2, x11
  403cd0:	9105031a 	add	x26, x24, #0x140
  403cd4:	8b0b027e 	add	x30, x19, x11
  403cd8:	91060308 	add	x8, x24, #0x180
  403cdc:	ad016718 	stp	q24, q25, [x24, #32]
  403ce0:	8b0b03ce 	add	x14, x30, x11
  403ce4:	9107030d 	add	x13, x24, #0x1c0
  403ce8:	ad406d9a 	ldp	q26, q27, [x12]
  403cec:	91080318 	add	x24, x24, #0x200
  403cf0:	8b0b01c1 	add	x1, x14, x11
  403cf4:	ad006e5a 	stp	q26, q27, [x18]
  403cf8:	ad41759c 	ldp	q28, q29, [x12, #32]
  403cfc:	ad01765c 	stp	q28, q29, [x18, #32]
  403d00:	ad407814 	ldp	q20, q30, [x0]
  403d04:	ad007a14 	stp	q20, q30, [x16]
  403d08:	ad410c1f 	ldp	q31, q3, [x0, #32]
  403d0c:	ad010e1f 	stp	q31, q3, [x16, #32]
  403d10:	ad4004c2 	ldp	q2, q1, [x6]
  403d14:	ad0005e2 	stp	q2, q1, [x15]
  403d18:	ad4110c0 	ldp	q0, q4, [x6, #32]
  403d1c:	ad0111e0 	stp	q0, q4, [x15, #32]
  403d20:	ad401845 	ldp	q5, q6, [x2]
  403d24:	ad001a25 	stp	q5, q6, [x17]
  403d28:	ad414047 	ldp	q7, q16, [x2, #32]
  403d2c:	ad014227 	stp	q7, q16, [x17, #32]
  403d30:	ad404a71 	ldp	q17, q18, [x19]
  403d34:	ad004b51 	stp	q17, q18, [x26]
  403d38:	ad415673 	ldp	q19, q21, [x19, #32]
  403d3c:	ad015753 	stp	q19, q21, [x26, #32]
  403d40:	ad405fd6 	ldp	q22, q23, [x30]
  403d44:	ad005d16 	stp	q22, q23, [x8]
  403d48:	ad4167d8 	ldp	q24, q25, [x30, #32]
  403d4c:	ad016518 	stp	q24, q25, [x8, #32]
  403d50:	ad406dda 	ldp	q26, q27, [x14]
  403d54:	ad006dba 	stp	q26, q27, [x13]
  403d58:	ad4175dc 	ldp	q28, q29, [x14, #32]
  403d5c:	ad0175bc 	stp	q28, q29, [x13, #32]
  403d60:	eb18015f 	cmp	x10, x24
  403d64:	54fff9e1 	b.ne	403ca0 <_Z9cache_ijkILi4ELi16EEviiiiiiPfiS0_iS0_i+0x6d0>  // b.any
  403d68:	8b070063 	add	x3, x3, x7
  403d6c:	910040a5 	add	x5, x5, #0x10
  403d70:	91010084 	add	x4, x4, #0x40
  403d74:	6b0502ff 	cmp	w23, w5
  403d78:	54fff10c 	b.gt	403b98 <_Z9cache_ijkILi4ELi16EEviiiiiiPfiS0_iS0_i+0x5c8>
  403d7c:	910703e1 	add	x1, sp, #0x1c0
  403d80:	52800020 	mov	w0, #0x1                   	// #1
  403d84:	97fff2ab 	bl	400830 <clock_gettime@plt>
  403d88:	a95b1ff8 	ldp	x24, x7, [sp, #432]
  403d8c:	f940e7e1 	ldr	x1, [sp, #456]
  403d90:	f940e3eb 	ldr	x11, [sp, #448]
  403d94:	cb070029 	sub	x9, x1, x7
  403d98:	b940b7f2 	ldr	w18, [sp, #180]
  403d9c:	cb18016c 	sub	x12, x11, x24
  403da0:	9e620134 	scvtf	d20, x9
  403da4:	9e62019f 	scvtf	d31, x12
  403da8:	f9406fea 	ldr	x10, [sp, #216]
  403dac:	1f487e83 	fmadd	d3, d20, d8, d31
  403db0:	fd40015e 	ldr	d30, [x10]
  403db4:	1e632bc2 	fadd	d2, d30, d3
  403db8:	fd000142 	str	d2, [x10]
  403dbc:	7100025f 	cmp	w18, #0x0
  403dc0:	540014cd 	b.le	404058 <_Z9cache_ijkILi4ELi16EEviiiiiiPfiS0_iS0_i+0xa88>
  403dc4:	b901a3f4 	str	w20, [sp, #416]
  403dc8:	531e76a0 	lsl	w0, w21, #2
  403dcc:	b940f7f4 	ldr	w20, [sp, #244]
  403dd0:	5280001a 	mov	w26, #0x0                   	// #0
  403dd4:	f900d7fc 	str	x28, [sp, #424]
  403dd8:	2a1703fc 	mov	w28, w23
  403ddc:	52800018 	mov	w24, #0x0                   	// #0
  403de0:	b900abf4 	str	w20, [sp, #168]
  403de4:	b900e7e0 	str	w0, [sp, #228]
  403de8:	b901a7f6 	str	w22, [sp, #420]
  403dec:	7100039f 	cmp	w28, #0x0
  403df0:	5400118d 	b.le	404020 <_Z9cache_ijkILi4ELi16EEviiiiiiPfiS0_iS0_i+0xa50>
  403df4:	f94063f6 	ldr	x22, [sp, #192]
  403df8:	51000790 	sub	w16, w28, #0x1
  403dfc:	b940abf7 	ldr	w23, [sp, #168]
  403e00:	b0000162 	adrp	x2, 430000 <puts@GLIBC_2.17>
  403e04:	f94067ef 	ldr	x15, [sp, #200]
  403e08:	d344121e 	ubfx	x30, x16, #4, #1
  403e0c:	f9406bf1 	ldr	x17, [sp, #208]
  403e10:	8b37c2c6 	add	x6, x22, w23, sxtw
  403e14:	9106c3e1 	add	x1, sp, #0x1b0
  403e18:	8b3ac9f6 	add	x22, x15, w26, sxtw #2
  403e1c:	91020057 	add	x23, x2, #0x80
  403e20:	52800020 	mov	w0, #0x1                   	// #1
  403e24:	8b060a33 	add	x19, x17, x6, lsl #2
  403e28:	f9005ffe 	str	x30, [sp, #184]
  403e2c:	97fff281 	bl	400830 <clock_gettime@plt>
  403e30:	52800214 	mov	w20, #0x10                  	// #16
  403e34:	2a1903e7 	mov	w7, w25
  403e38:	aa1303e6 	mov	x6, x19
  403e3c:	aa1b03e5 	mov	x5, x27
  403e40:	aa1603e4 	mov	x4, x22
  403e44:	2a1503e3 	mov	w3, w21
  403e48:	52800002 	mov	w2, #0x0                   	// #0
  403e4c:	52800201 	mov	w1, #0x10                  	// #16
  403e50:	52800080 	mov	w0, #0x4                   	// #4
  403e54:	940061cf 	bl	41c590 <_Z14register_blockiiiiPKfS0_Pfi>
  403e58:	91010273 	add	x19, x19, #0x40
  403e5c:	910703e1 	add	x1, sp, #0x1c0
  403e60:	52800020 	mov	w0, #0x1                   	// #1
  403e64:	97fff273 	bl	400830 <clock_gettime@plt>
  403e68:	a95b37ee 	ldp	x14, x13, [sp, #432]
  403e6c:	b0000168 	adrp	x8, 430000 <puts@GLIBC_2.17>
  403e70:	a95c17e3 	ldp	x3, x5, [sp, #448]
  403e74:	b0000167 	adrp	x7, 430000 <puts@GLIBC_2.17>
  403e78:	fd404104 	ldr	d4, [x8, #128]
  403e7c:	cb0d00aa 	sub	x10, x5, x13
  403e80:	cb0e0064 	sub	x4, x3, x14
  403e84:	9e620141 	scvtf	d1, x10
  403e88:	9e620080 	scvtf	d0, x4
  403e8c:	1f480025 	fmadd	d5, d1, d8, d0
  403e90:	1e652886 	fadd	d6, d4, d5
  403e94:	fd0040e6 	str	d6, [x7, #128]
  403e98:	6b14039f 	cmp	w28, w20
  403e9c:	54000c2d 	b.le	404020 <_Z9cache_ijkILi4ELi16EEviiiiiiPfiS0_iS0_i+0xa50>
  403ea0:	b940bbe1 	ldr	w1, [sp, #184]
  403ea4:	34000421 	cbz	w1, 403f28 <_Z9cache_ijkILi4ELi16EEviiiiiiPfiS0_iS0_i+0x958>
  403ea8:	9106c3e1 	add	x1, sp, #0x1b0
  403eac:	52800020 	mov	w0, #0x1                   	// #1
  403eb0:	97fff260 	bl	400830 <clock_gettime@plt>
  403eb4:	531c6ea9 	lsl	w9, w21, #4
  403eb8:	aa1303e6 	mov	x6, x19
  403ebc:	2a1903e7 	mov	w7, w25
  403ec0:	aa1603e4 	mov	x4, x22
  403ec4:	8b29cb65 	add	x5, x27, w9, sxtw #2
  403ec8:	2a1503e3 	mov	w3, w21
  403ecc:	52800002 	mov	w2, #0x0                   	// #0
  403ed0:	2a1403e1 	mov	w1, w20
  403ed4:	52800080 	mov	w0, #0x4                   	// #4
  403ed8:	940061ae 	bl	41c590 <_Z14register_blockiiiiPKfS0_Pfi>
  403edc:	910703e1 	add	x1, sp, #0x1c0
  403ee0:	52800020 	mov	w0, #0x1                   	// #1
  403ee4:	97fff253 	bl	400830 <clock_gettime@plt>
  403ee8:	91010273 	add	x19, x19, #0x40
  403eec:	a95b33eb 	ldp	x11, x12, [sp, #432]
  403ef0:	b000016f 	adrp	x15, 430000 <puts@GLIBC_2.17>
  403ef4:	a95c03f2 	ldp	x18, x0, [sp, #448]
  403ef8:	52800414 	mov	w20, #0x20                  	// #32
  403efc:	fd4041e7 	ldr	d7, [x15, #128]
  403f00:	cb0c0002 	sub	x2, x0, x12
  403f04:	cb0b0246 	sub	x6, x18, x11
  403f08:	9e620051 	scvtf	d17, x2
  403f0c:	9e6200d0 	scvtf	d16, x6
  403f10:	1f484232 	fmadd	d18, d17, d8, d16
  403f14:	1e7228f3 	fadd	d19, d7, d18
  403f18:	fd0041f3 	str	d19, [x15, #128]
  403f1c:	6b14039f 	cmp	w28, w20
  403f20:	5400080d 	b.le	404020 <_Z9cache_ijkILi4ELi16EEviiiiiiPfiS0_iS0_i+0xa50>
  403f24:	d503201f 	nop
  403f28:	9106c3e1 	add	x1, sp, #0x1b0
  403f2c:	52800020 	mov	w0, #0x1                   	// #1
  403f30:	97fff240 	bl	400830 <clock_gettime@plt>
  403f34:	13047e8e 	asr	w14, w20, #4
  403f38:	aa1303e6 	mov	x6, x19
  403f3c:	2a1903e7 	mov	w7, w25
  403f40:	aa1603e4 	mov	x4, x22
  403f44:	2a1503e3 	mov	w3, w21
  403f48:	52800002 	mov	w2, #0x0                   	// #0
  403f4c:	1b157dcd 	mul	w13, w14, w21
  403f50:	52800201 	mov	w1, #0x10                  	// #16
  403f54:	52800080 	mov	w0, #0x4                   	// #4
  403f58:	11004294 	add	w20, w20, #0x10
  403f5c:	91010273 	add	x19, x19, #0x40
  403f60:	531c6da5 	lsl	w5, w13, #4
  403f64:	8b25cb65 	add	x5, x27, w5, sxtw #2
  403f68:	9400618a 	bl	41c590 <_Z14register_blockiiiiPKfS0_Pfi>
  403f6c:	910703e1 	add	x1, sp, #0x1c0
  403f70:	52800020 	mov	w0, #0x1                   	// #1
  403f74:	97fff22f 	bl	400830 <clock_gettime@plt>
  403f78:	a95b13ea 	ldp	x10, x4, [sp, #432]
  403f7c:	9106c3e1 	add	x1, sp, #0x1b0
  403f80:	a95c1fe3 	ldp	x3, x7, [sp, #448]
  403f84:	52800020 	mov	w0, #0x1                   	// #1
  403f88:	fd4002f5 	ldr	d21, [x23]
  403f8c:	cb0400eb 	sub	x11, x7, x4
  403f90:	cb0a0069 	sub	x9, x3, x10
  403f94:	9e620177 	scvtf	d23, x11
  403f98:	9e620136 	scvtf	d22, x9
  403f9c:	1f485af8 	fmadd	d24, d23, d8, d22
  403fa0:	1e782ab9 	fadd	d25, d21, d24
  403fa4:	fd0002f9 	str	d25, [x23]
  403fa8:	97fff222 	bl	400830 <clock_gettime@plt>
  403fac:	13047e81 	asr	w1, w20, #4
  403fb0:	aa1303e6 	mov	x6, x19
  403fb4:	2a1903e7 	mov	w7, w25
  403fb8:	aa1603e4 	mov	x4, x22
  403fbc:	2a1503e3 	mov	w3, w21
  403fc0:	52800002 	mov	w2, #0x0                   	// #0
  403fc4:	1b157c2c 	mul	w12, w1, w21
  403fc8:	52800080 	mov	w0, #0x4                   	// #4
  403fcc:	52800201 	mov	w1, #0x10                  	// #16
  403fd0:	11004294 	add	w20, w20, #0x10
  403fd4:	91010273 	add	x19, x19, #0x40
  403fd8:	531c6d92 	lsl	w18, w12, #4
  403fdc:	8b32cb65 	add	x5, x27, w18, sxtw #2
  403fe0:	9400616c 	bl	41c590 <_Z14register_blockiiiiPKfS0_Pfi>
  403fe4:	910703e1 	add	x1, sp, #0x1c0
  403fe8:	52800020 	mov	w0, #0x1                   	// #1
  403fec:	97fff211 	bl	400830 <clock_gettime@plt>
  403ff0:	a95b3fe6 	ldp	x6, x15, [sp, #432]
  403ff4:	a95c03e2 	ldp	x2, x0, [sp, #448]
  403ff8:	fd4002fa 	ldr	d26, [x23]
  403ffc:	cb0f000e 	sub	x14, x0, x15
  404000:	cb060048 	sub	x8, x2, x6
  404004:	9e6201dc 	scvtf	d28, x14
  404008:	9e62011b 	scvtf	d27, x8
  40400c:	1f486f9d 	fmadd	d29, d28, d8, d27
  404010:	1e7d2b54 	fadd	d20, d26, d29
  404014:	fd0002f4 	str	d20, [x23]
  404018:	6b14039f 	cmp	w28, w20
  40401c:	54fff86c 	b.gt	403f28 <_Z9cache_ijkILi4ELi16EEviiiiiiPfiS0_iS0_i+0x958>
  404020:	b940abf0 	ldr	w16, [sp, #168]
  404024:	11001318 	add	w24, w24, #0x4
  404028:	b940e3f6 	ldr	w22, [sp, #224]
  40402c:	b940e7f1 	ldr	w17, [sp, #228]
  404030:	b940b7fe 	ldr	w30, [sp, #180]
  404034:	0b160217 	add	w23, w16, w22
  404038:	b900abf7 	str	w23, [sp, #168]
  40403c:	0b11035a 	add	w26, w26, w17
  404040:	6b1e031f 	cmp	w24, w30
  404044:	54ffed4b 	b.lt	403dec <_Z9cache_ijkILi4ELi16EEviiiiiiPfiS0_iS0_i+0x81c>  // b.tstop
  404048:	2a1c03f7 	mov	w23, w28
  40404c:	b941a3f4 	ldr	w20, [sp, #416]
  404050:	f940d7fc 	ldr	x28, [sp, #424]
  404054:	b941a7f6 	ldr	w22, [sp, #420]
  404058:	f9406be9 	ldr	x9, [sp, #208]
  40405c:	2a1503e5 	mov	w5, w21
  404060:	b940b7e6 	ldr	w6, [sp, #180]
  404064:	2a1703e7 	mov	w7, w23
  404068:	b940f3e3 	ldr	w3, [sp, #240]
  40406c:	2a1403e4 	mov	w4, w20
  404070:	b94183ed 	ldr	w13, [sp, #384]
  404074:	2a1603e1 	mov	w1, w22
  404078:	b94167ea 	ldr	w10, [sp, #356]
  40407c:	b9410fe0 	ldr	w0, [sp, #268]
  404080:	f94093f3 	ldr	x19, [sp, #288]
  404084:	f90003fc 	str	x28, [sp]
  404088:	b9411bf5 	ldr	w21, [sp, #280]
  40408c:	b9000bed 	str	w13, [sp, #8]
  404090:	f9000bf3 	str	x19, [sp, #16]
  404094:	2a1503e2 	mov	w2, w21
  404098:	b9001bea 	str	w10, [sp, #24]
  40409c:	f90013e9 	str	x9, [sp, #32]
  4040a0:	b9002bf9 	str	w25, [sp, #40]
  4040a4:	97fff7ab 	bl	401f50 <_Z10tail_blockILi4ELi16EEviiiiiiiiPfiS0_iS0_i>
  4040a8:	f9407fe1 	ldr	x1, [sp, #248]
  4040ac:	f94083ef 	ldr	x15, [sp, #256]
  4040b0:	f940a3ec 	ldr	x12, [sp, #320]
  4040b4:	f940a7e6 	ldr	x6, [sp, #328]
  4040b8:	8b0c0032 	add	x18, x1, x12
  4040bc:	b9410be4 	ldr	w4, [sp, #264]
  4040c0:	b94117e3 	ldr	w3, [sp, #276]
  4040c4:	8b0601e2 	add	x2, x15, x6
  4040c8:	b9411fe0 	ldr	w0, [sp, #284]
  4040cc:	0b0302a7 	add	w7, w21, w3
  4040d0:	4b03008b 	sub	w11, w4, w3
  4040d4:	f9007ff2 	str	x18, [sp, #248]
  4040d8:	f90083e2 	str	x2, [sp, #256]
  4040dc:	b9010beb 	str	w11, [sp, #264]
  4040e0:	b9011be7 	str	w7, [sp, #280]
  4040e4:	6b07001f 	cmp	w0, w7
  4040e8:	54ffc38c 	b.gt	403958 <_Z9cache_ijkILi4ELi16EEviiiiiiPfiS0_iS0_i+0x388>
  4040ec:	b94197f1 	ldr	w17, [sp, #404]
  4040f0:	2a1603f0 	mov	w16, w22
  4040f4:	b9419bf3 	ldr	w19, [sp, #408]
  4040f8:	b9419fee 	ldr	w14, [sp, #412]
  4040fc:	f94063e8 	ldr	x8, [sp, #192]
  404100:	0b0e0210 	add	w16, w16, w14
  404104:	f940b7f8 	ldr	x24, [sp, #360]
  404108:	4b0e0231 	sub	w17, w17, w14
  40410c:	8b18011a 	add	x26, x8, x24
  404110:	f90063fa 	str	x26, [sp, #192]
  404114:	6b10027f 	cmp	w19, w16
  404118:	54ffbeac 	b.gt	4038ec <_Z9cache_ijkILi4ELi16EEviiiiiiPfiS0_iS0_i+0x31c>
  40411c:	f940c7f5 	ldr	x21, [sp, #392]
  404120:	2a1903f8 	mov	w24, w25
  404124:	f940bff9 	ldr	x25, [sp, #376]
  404128:	2a0e03fc 	mov	w28, w14
  40412c:	b94187f4 	ldr	w20, [sp, #388]
  404130:	b94193fa 	ldr	w26, [sp, #400]
  404134:	b940f7fe 	ldr	w30, [sp, #244]
  404138:	4b1a0294 	sub	w20, w20, w26
  40413c:	b9410ff7 	ldr	w23, [sp, #268]
  404140:	b94113e5 	ldr	w5, [sp, #272]
  404144:	b94153f6 	ldr	w22, [sp, #336]
  404148:	0b1a02ed 	add	w13, w23, w26
  40414c:	b94157e9 	ldr	w9, [sp, #340]
  404150:	b94163e3 	ldr	w3, [sp, #352]
  404154:	0b1603ca 	add	w10, w30, w22
  404158:	0b0900a4 	add	w4, w5, w9
  40415c:	b900f7ea 	str	w10, [sp, #244]
  404160:	b9010fed 	str	w13, [sp, #268]
  404164:	b90113e4 	str	w4, [sp, #272]
  404168:	6b0d007f 	cmp	w3, w13
  40416c:	54ffac6c 	b.gt	4036f8 <_Z9cache_ijkILi4ELi16EEviiiiiiPfiS0_iS0_i+0x128>
  404170:	fd404be8 	ldr	d8, [sp, #144]
  404174:	f94067e0 	ldr	x0, [sp, #200]
  404178:	97fff19a 	bl	4007e0 <free@plt>
  40417c:	a9437bfd 	ldp	x29, x30, [sp, #48]
  404180:	aa1b03e0 	mov	x0, x27
  404184:	a94453f3 	ldp	x19, x20, [sp, #64]
  404188:	a9455bf5 	ldp	x21, x22, [sp, #80]
  40418c:	a94663f7 	ldp	x23, x24, [sp, #96]
  404190:	a9476bf9 	ldp	x25, x26, [sp, #112]
  404194:	a94873fb 	ldp	x27, x28, [sp, #128]
  404198:	910743ff 	add	sp, sp, #0x1d0
  40419c:	17fff191 	b	4007e0 <free@plt>

00000000004041a0 <_Z9cache_ikjILi4ELi16EEviiiiiiPfiS0_iS0_i>:
  4041a0:	d10743ff 	sub	sp, sp, #0x1d0
  4041a4:	a9037bfd 	stp	x29, x30, [sp, #48]
  4041a8:	9100c3fd 	add	x29, sp, #0x30
  4041ac:	a90453f3 	stp	x19, x20, [sp, #64]
  4041b0:	2a0503f3 	mov	w19, w5
  4041b4:	2a0003f4 	mov	w20, w0
  4041b8:	a9076bf9 	stp	x25, x26, [sp, #112]
  4041bc:	2a0303fa 	mov	w26, w3
  4041c0:	b90107e5 	str	w5, [sp, #260]
  4041c4:	1b057c65 	mul	w5, w3, w5
  4041c8:	f940ebe3 	ldr	x3, [sp, #464]
  4041cc:	a9055bf5 	stp	x21, x22, [sp, #80]
  4041d0:	2a0403f6 	mov	w22, w4
  4041d4:	f940f3e0 	ldr	x0, [sp, #480]
  4041d8:	a90663f7 	stp	x23, x24, [sp, #96]
  4041dc:	b941dbf5 	ldr	w21, [sp, #472]
  4041e0:	2a0103f7 	mov	w23, w1
  4041e4:	a90873fb 	stp	x27, x28, [sp, #128]
  4041e8:	b941ebfb 	ldr	w27, [sp, #488]
  4041ec:	b900a3e7 	str	w7, [sp, #160]
  4041f0:	f90067e0 	str	x0, [sp, #200]
  4041f4:	d2800800 	mov	x0, #0x40                  	// #64
  4041f8:	b900efe4 	str	w4, [sp, #236]
  4041fc:	f9007be6 	str	x6, [sp, #240]
  404200:	291f8be1 	stp	w1, w2, [sp, #252]
  404204:	937e7ca1 	sbfiz	x1, x5, #2, #32
  404208:	f90087e3 	str	x3, [sp, #264]
  40420c:	b90163f5 	str	w21, [sp, #352]
  404210:	97fff16c 	bl	4007c0 <aligned_alloc@plt>
  404214:	1b137ec1 	mul	w1, w22, w19
  404218:	f9005fe0 	str	x0, [sp, #184]
  40421c:	d2800800 	mov	x0, #0x40                  	// #64
  404220:	937e7c21 	sbfiz	x1, x1, #2, #32
  404224:	97fff167 	bl	4007c0 <aligned_alloc@plt>
  404228:	aa0003fc 	mov	x28, x0
  40422c:	7100029f 	cmp	w20, #0x0
  404230:	540058cd 	b.le	404d48 <_Z9cache_ikjILi4ELi16EEviiiiiiPfiS0_iS0_i+0xba8>
  404234:	b940a3e4 	ldr	w4, [sp, #160]
  404238:	52800186 	mov	w6, #0xc                   	// #12
  40423c:	d00000d2 	adrp	x18, 41e000 <_Z21register_block_vv_3x4ILi3ELi16EEviPKfS1_Pfi+0xe0>
  404240:	937e7ef8 	sbfiz	x24, x23, #2, #32
  404244:	2a1503eb 	mov	w11, w21
  404248:	1b1b7f42 	mul	w2, w26, w27
  40424c:	531e7487 	lsl	w7, w4, #2
  404250:	1b137eac 	mul	w12, w21, w19
  404254:	1b047f4a 	mul	w10, w26, w4
  404258:	531e776e 	lsl	w14, w27, #2
  40425c:	9b267c88 	smull	x8, w4, w6
  404260:	2a1b03f6 	mov	w22, w27
  404264:	937e7f75 	sbfiz	x21, x27, #2, #32
  404268:	2a1a03fc 	mov	w28, w26
  40426c:	aa0003fb 	mov	x27, x0
  404270:	aa1803fa 	mov	x26, x24
  404274:	2a1403f8 	mov	w24, w20
  404278:	fd004be8 	str	d8, [sp, #144]
  40427c:	fd41ea48 	ldr	d8, [x18, #976]
  404280:	93407ce9 	sxtw	x9, w7
  404284:	937e7d6d 	sbfiz	x13, x11, #2, #32
  404288:	93407c8f 	sxtw	x15, w4
  40428c:	93407e70 	sxtw	x16, w19
  404290:	937d7c91 	sbfiz	x17, x4, #3, #32
  404294:	52800017 	mov	w23, #0x0                   	// #0
  404298:	b900d3ee 	str	w14, [sp, #208]
  40429c:	b900dfff 	str	wzr, [sp, #220]
  4042a0:	b900ebff 	str	wzr, [sp, #232]
  4042a4:	f9008be9 	str	x9, [sp, #272]
  4042a8:	f9008fef 	str	x15, [sp, #280]
  4042ac:	f90093f1 	str	x17, [sp, #288]
  4042b0:	f90097e8 	str	x8, [sp, #296]
  4042b4:	b9013fec 	str	w12, [sp, #316]
  4042b8:	b90143e2 	str	w2, [sp, #320]
  4042bc:	b90147ea 	str	w10, [sp, #324]
  4042c0:	f900a7f0 	str	x16, [sp, #328]
  4042c4:	f900afed 	str	x13, [sp, #344]
  4042c8:	b90167e4 	str	w4, [sp, #356]
  4042cc:	6b1c031f 	cmp	w24, w28
  4042d0:	1a9cd31e 	csel	w30, w24, w28, le
  4042d4:	b900dbfe 	str	w30, [sp, #216]
  4042d8:	710003df 	cmp	w30, #0x0
  4042dc:	54000cad 	b.le	404470 <_Z9cache_ikjILi4ELi16EEviiiiiiPfiS0_iS0_i+0x2d0>
  4042e0:	f94067e3 	ldr	x3, [sp, #200]
  4042e4:	72000bc0 	ands	w0, w30, #0x7
  4042e8:	b940dfe5 	ldr	w5, [sp, #220]
  4042ec:	52800013 	mov	w19, #0x0                   	// #0
  4042f0:	8b25c868 	add	x8, x3, w5, sxtw #2
  4042f4:	54000740 	b.eq	4043dc <_Z9cache_ikjILi4ELi16EEviiiiiiPfiS0_iS0_i+0x23c>  // b.none
  4042f8:	7100041f 	cmp	w0, #0x1
  4042fc:	540005e0 	b.eq	4043b8 <_Z9cache_ikjILi4ELi16EEviiiiiiPfiS0_iS0_i+0x218>  // b.none
  404300:	7100081f 	cmp	w0, #0x2
  404304:	540004e0 	b.eq	4043a0 <_Z9cache_ikjILi4ELi16EEviiiiiiPfiS0_iS0_i+0x200>  // b.none
  404308:	71000c1f 	cmp	w0, #0x3
  40430c:	540003e0 	b.eq	404388 <_Z9cache_ikjILi4ELi16EEviiiiiiPfiS0_iS0_i+0x1e8>  // b.none
  404310:	7100101f 	cmp	w0, #0x4
  404314:	540002e0 	b.eq	404370 <_Z9cache_ikjILi4ELi16EEviiiiiiPfiS0_iS0_i+0x1d0>  // b.none
  404318:	7100141f 	cmp	w0, #0x5
  40431c:	540001e0 	b.eq	404358 <_Z9cache_ikjILi4ELi16EEviiiiiiPfiS0_iS0_i+0x1b8>  // b.none
  404320:	7100181f 	cmp	w0, #0x6
  404324:	540000e0 	b.eq	404340 <_Z9cache_ikjILi4ELi16EEviiiiiiPfiS0_iS0_i+0x1a0>  // b.none
  404328:	aa0803e0 	mov	x0, x8
  40432c:	aa1a03e2 	mov	x2, x26
  404330:	52800001 	mov	w1, #0x0                   	// #0
  404334:	97fff133 	bl	400800 <memset@plt>
  404338:	8b150008 	add	x8, x0, x21
  40433c:	52800033 	mov	w19, #0x1                   	// #1
  404340:	aa0803e0 	mov	x0, x8
  404344:	aa1a03e2 	mov	x2, x26
  404348:	52800001 	mov	w1, #0x0                   	// #0
  40434c:	11000673 	add	w19, w19, #0x1
  404350:	97fff12c 	bl	400800 <memset@plt>
  404354:	8b150008 	add	x8, x0, x21
  404358:	aa0803e0 	mov	x0, x8
  40435c:	aa1a03e2 	mov	x2, x26
  404360:	52800001 	mov	w1, #0x0                   	// #0
  404364:	11000673 	add	w19, w19, #0x1
  404368:	97fff126 	bl	400800 <memset@plt>
  40436c:	8b150008 	add	x8, x0, x21
  404370:	aa0803e0 	mov	x0, x8
  404374:	aa1a03e2 	mov	x2, x26
  404378:	52800001 	mov	w1, #0x0                   	// #0
  40437c:	11000673 	add	w19, w19, #0x1
  404380:	97fff120 	bl	400800 <memset@plt>
  404384:	8b150008 	add	x8, x0, x21
  404388:	aa0803e0 	mov	x0, x8
  40438c:	aa1a03e2 	mov	x2, x26
  404390:	52800001 	mov	w1, #0x0                   	// #0
  404394:	11000673 	add	w19, w19, #0x1
  404398:	97fff11a 	bl	400800 <memset@plt>
  40439c:	8b150008 	add	x8, x0, x21
  4043a0:	aa0803e0 	mov	x0, x8
  4043a4:	aa1a03e2 	mov	x2, x26
  4043a8:	52800001 	mov	w1, #0x0                   	// #0
  4043ac:	11000673 	add	w19, w19, #0x1
  4043b0:	97fff114 	bl	400800 <memset@plt>
  4043b4:	8b150008 	add	x8, x0, x21
  4043b8:	aa0803e0 	mov	x0, x8
  4043bc:	aa1a03e2 	mov	x2, x26
  4043c0:	52800001 	mov	w1, #0x0                   	// #0
  4043c4:	97fff10f 	bl	400800 <memset@plt>
  4043c8:	b940dbe9 	ldr	w9, [sp, #216]
  4043cc:	11000673 	add	w19, w19, #0x1
  4043d0:	8b150008 	add	x8, x0, x21
  4043d4:	6b13013f 	cmp	w9, w19
  4043d8:	540004c0 	b.eq	404470 <_Z9cache_ikjILi4ELi16EEviiiiiiPfiS0_iS0_i+0x2d0>  // b.none
  4043dc:	aa0803e0 	mov	x0, x8
  4043e0:	aa1a03e2 	mov	x2, x26
  4043e4:	52800001 	mov	w1, #0x0                   	// #0
  4043e8:	97fff106 	bl	400800 <memset@plt>
  4043ec:	aa1a03e2 	mov	x2, x26
  4043f0:	52800001 	mov	w1, #0x0                   	// #0
  4043f4:	8b150000 	add	x0, x0, x21
  4043f8:	97fff102 	bl	400800 <memset@plt>
  4043fc:	aa1a03e2 	mov	x2, x26
  404400:	52800001 	mov	w1, #0x0                   	// #0
  404404:	8b150000 	add	x0, x0, x21
  404408:	97fff0fe 	bl	400800 <memset@plt>
  40440c:	aa1a03e2 	mov	x2, x26
  404410:	52800001 	mov	w1, #0x0                   	// #0
  404414:	8b150000 	add	x0, x0, x21
  404418:	97fff0fa 	bl	400800 <memset@plt>
  40441c:	aa1a03e2 	mov	x2, x26
  404420:	52800001 	mov	w1, #0x0                   	// #0
  404424:	8b150000 	add	x0, x0, x21
  404428:	97fff0f6 	bl	400800 <memset@plt>
  40442c:	aa1a03e2 	mov	x2, x26
  404430:	52800001 	mov	w1, #0x0                   	// #0
  404434:	8b150000 	add	x0, x0, x21
  404438:	97fff0f2 	bl	400800 <memset@plt>
  40443c:	aa1a03e2 	mov	x2, x26
  404440:	52800001 	mov	w1, #0x0                   	// #0
  404444:	8b150000 	add	x0, x0, x21
  404448:	97fff0ee 	bl	400800 <memset@plt>
  40444c:	aa1a03e2 	mov	x2, x26
  404450:	8b150000 	add	x0, x0, x21
  404454:	52800001 	mov	w1, #0x0                   	// #0
  404458:	97fff0ea 	bl	400800 <memset@plt>
  40445c:	b940dbe3 	ldr	w3, [sp, #216]
  404460:	11002273 	add	w19, w19, #0x8
  404464:	8b150008 	add	x8, x0, x21
  404468:	6b13007f 	cmp	w3, w19
  40446c:	54fffb81 	b.ne	4043dc <_Z9cache_ikjILi4ELi16EEviiiiiiPfiS0_iS0_i+0x23c>  // b.any
  404470:	b940dbf0 	ldr	w16, [sp, #216]
  404474:	b94103e0 	ldr	w0, [sp, #256]
  404478:	6b1003f1 	negs	w17, w16
  40447c:	1200061e 	and	w30, w16, #0x3
  404480:	12000621 	and	w1, w17, #0x3
  404484:	5a8147c6 	csneg	w6, w30, w1, mi  // mi = first
  404488:	4b060202 	sub	w2, w16, w6
  40448c:	b900afe2 	str	w2, [sp, #172]
  404490:	7100001f 	cmp	w0, #0x0
  404494:	540043ed 	b.le	404d10 <_Z9cache_ikjILi4ELi16EEviiiiiiPfiS0_iS0_i+0xb70>
  404498:	a916d7fa 	stp	x26, x21, [sp, #360]
  40449c:	910603fa 	add	x26, sp, #0x180
  4044a0:	93407ee8 	sxtw	x8, w23
  4044a4:	52800011 	mov	w17, #0x0                   	// #0
  4044a8:	52800010 	mov	w16, #0x0                   	// #0
  4044ac:	293f5f58 	stp	w24, w23, [x26, #-8]
  4044b0:	2a1603f8 	mov	w24, w22
  4044b4:	90000179 	adrp	x25, 430000 <puts@GLIBC_2.17>
  4044b8:	29007354 	stp	w20, w28, [x26]
  4044bc:	b94107f4 	ldr	w20, [sp, #260]
  4044c0:	b940affc 	ldr	w28, [sp, #172]
  4044c4:	6b14001f 	cmp	w0, w20
  4044c8:	1a94d015 	csel	w21, w0, w20, le
  4044cc:	7100039f 	cmp	w28, #0x0
  4044d0:	5400100d 	b.le	4046d0 <_Z9cache_ikjILi4ELi16EEviiiiiiPfiS0_iS0_i+0x530>
  4044d4:	f9405fea 	ldr	x10, [sp, #184]
  4044d8:	531e76b6 	lsl	w22, w21, #2
  4044dc:	93407eb7 	sxtw	x23, w21
  4044e0:	b900fbf8 	str	w24, [sp, #248]
  4044e4:	937e7ec9 	sbfiz	x9, x22, #2, #32
  4044e8:	90000167 	adrp	x7, 430000 <puts@GLIBC_2.17>
  4044ec:	f9408ff4 	ldr	x20, [sp, #280]
  4044f0:	cb1713f6 	neg	x22, x23, lsl #4
  4044f4:	f94093f7 	ldr	x23, [sp, #288]
  4044f8:	8b09014b 	add	x11, x10, x9
  4044fc:	f94097f8 	ldr	x24, [sp, #296]
  404500:	910220fc 	add	x28, x7, #0x88
  404504:	aa0b03f3 	mov	x19, x11
  404508:	f90053fb 	str	x27, [sp, #160]
  40450c:	aa0803fb 	mov	x27, x8
  404510:	5280001a 	mov	w26, #0x0                   	// #0
  404514:	b900abe0 	str	w0, [sp, #168]
  404518:	f9005be9 	str	x9, [sp, #176]
  40451c:	b900c3f0 	str	w16, [sp, #192]
  404520:	b900d7f1 	str	w17, [sp, #212]
  404524:	f90073e8 	str	x8, [sp, #224]
  404528:	9106c3e1 	add	x1, sp, #0x1b0
  40452c:	52800020 	mov	w0, #0x1                   	// #1
  404530:	97fff0c0 	bl	400830 <clock_gettime@plt>
  404534:	8b160260 	add	x0, x19, x22
  404538:	710002bf 	cmp	w21, #0x0
  40453c:	5400090d 	b.le	40465c <_Z9cache_ikjILi4ELi16EEviiiiiiPfiS0_iS0_i+0x4bc>
  404540:	cb000264 	sub	x4, x19, x0
  404544:	d37ef768 	lsl	x8, x27, #2
  404548:	d100408c 	sub	x12, x4, #0x10
  40454c:	f9407bf2 	ldr	x18, [sp, #240]
  404550:	d344fd8d 	lsr	x13, x12, #4
  404554:	910005ae 	add	x14, x13, #0x1
  404558:	f24005cf 	ands	x15, x14, #0x3
  40455c:	8b080250 	add	x16, x18, x8
  404560:	54000400 	b.eq	4045e0 <_Z9cache_ikjILi4ELi16EEviiiiiiPfiS0_iS0_i+0x440>  // b.none
  404564:	f10005ff 	cmp	x15, #0x1
  404568:	54000280 	b.eq	4045b8 <_Z9cache_ikjILi4ELi16EEviiiiiiPfiS0_iS0_i+0x418>  // b.none
  40456c:	f10009ff 	cmp	x15, #0x2
  404570:	54000140 	b.eq	404598 <_Z9cache_ikjILi4ELi16EEviiiiiiPfiS0_iS0_i+0x3f8>  // b.none
  404574:	f9407be5 	ldr	x5, [sp, #240]
  404578:	bc747a02 	ldr	s2, [x16, x20, lsl #2]
  40457c:	bc776a01 	ldr	s1, [x16, x23]
  404580:	bc786a00 	ldr	s0, [x16, x24]
  404584:	91001210 	add	x16, x16, #0x4
  404588:	bc6868a3 	ldr	s3, [x5, x8]
  40458c:	2d010001 	stp	s1, s0, [x0, #8]
  404590:	2d000803 	stp	s3, s2, [x0]
  404594:	91004000 	add	x0, x0, #0x10
  404598:	bc747a04 	ldr	s4, [x16, x20, lsl #2]
  40459c:	bc776a05 	ldr	s5, [x16, x23]
  4045a0:	bc786a06 	ldr	s6, [x16, x24]
  4045a4:	91001210 	add	x16, x16, #0x4
  4045a8:	bc5fc207 	ldur	s7, [x16, #-4]
  4045ac:	2d011805 	stp	s5, s6, [x0, #8]
  4045b0:	2d001007 	stp	s7, s4, [x0]
  4045b4:	91004000 	add	x0, x0, #0x10
  4045b8:	bc747a10 	ldr	s16, [x16, x20, lsl #2]
  4045bc:	bc776a11 	ldr	s17, [x16, x23]
  4045c0:	bc786a12 	ldr	s18, [x16, x24]
  4045c4:	91001210 	add	x16, x16, #0x4
  4045c8:	bc5fc213 	ldur	s19, [x16, #-4]
  4045cc:	2d014811 	stp	s17, s18, [x0, #8]
  4045d0:	2d004013 	stp	s19, s16, [x0]
  4045d4:	91004000 	add	x0, x0, #0x10
  4045d8:	eb13001f 	cmp	x0, x19
  4045dc:	54000400 	b.eq	40465c <_Z9cache_ikjILi4ELi16EEviiiiiiPfiS0_iS0_i+0x4bc>  // b.none
  4045e0:	91001211 	add	x17, x16, #0x4
  4045e4:	9100221e 	add	x30, x16, #0x8
  4045e8:	91003203 	add	x3, x16, #0xc
  4045ec:	bc747a15 	ldr	s21, [x16, x20, lsl #2]
  4045f0:	2d407a14 	ldp	s20, s30, [x16]
  4045f4:	9100c001 	add	x1, x0, #0x30
  4045f8:	2d410a1f 	ldp	s31, s2, [x16, #8]
  4045fc:	bc776a16 	ldr	s22, [x16, x23]
  404600:	bc786a17 	ldr	s23, [x16, x24]
  404604:	91004210 	add	x16, x16, #0x10
  404608:	bc747a38 	ldr	s24, [x17, x20, lsl #2]
  40460c:	bc776a39 	ldr	s25, [x17, x23]
  404610:	bc786a3a 	ldr	s26, [x17, x24]
  404614:	bc747bdb 	ldr	s27, [x30, x20, lsl #2]
  404618:	bc776bdc 	ldr	s28, [x30, x23]
  40461c:	bc786bdd 	ldr	s29, [x30, x24]
  404620:	bc747863 	ldr	s3, [x3, x20, lsl #2]
  404624:	bc776861 	ldr	s1, [x3, x23]
  404628:	bc786860 	ldr	s0, [x3, x24]
  40462c:	2d005414 	stp	s20, s21, [x0]
  404630:	2d015c16 	stp	s22, s23, [x0, #8]
  404634:	2d02601e 	stp	s30, s24, [x0, #16]
  404638:	2d036819 	stp	s25, s26, [x0, #24]
  40463c:	2d046c1f 	stp	s31, s27, [x0, #32]
  404640:	2d05741c 	stp	s28, s29, [x0, #40]
  404644:	91010000 	add	x0, x0, #0x40
  404648:	bc1f0002 	stur	s2, [x0, #-16]
  40464c:	2d008423 	stp	s3, s1, [x1, #4]
  404650:	bd000c20 	str	s0, [x1, #12]
  404654:	eb13001f 	cmp	x0, x19
  404658:	54fffc41 	b.ne	4045e0 <_Z9cache_ikjILi4ELi16EEviiiiiiPfiS0_iS0_i+0x440>  // b.any
  40465c:	910703e1 	add	x1, sp, #0x1c0
  404660:	52800020 	mov	w0, #0x1                   	// #1
  404664:	97fff073 	bl	400830 <clock_gettime@plt>
  404668:	1100135a 	add	w26, w26, #0x4
  40466c:	f940dfe7 	ldr	x7, [sp, #440]
  404670:	f940e7e9 	ldr	x9, [sp, #456]
  404674:	f940dbeb 	ldr	x11, [sp, #432]
  404678:	cb07012a 	sub	x10, x9, x7
  40467c:	f940e3e4 	ldr	x4, [sp, #448]
  404680:	9e620145 	scvtf	d5, x10
  404684:	fd400384 	ldr	d4, [x28]
  404688:	cb0b0088 	sub	x8, x4, x11
  40468c:	b940afec 	ldr	w12, [sp, #172]
  404690:	f9405be6 	ldr	x6, [sp, #176]
  404694:	9e620106 	scvtf	d6, x8
  404698:	1f4818a7 	fmadd	d7, d5, d8, d6
  40469c:	f9408be2 	ldr	x2, [sp, #272]
  4046a0:	8b060273 	add	x19, x19, x6
  4046a4:	8b02037b 	add	x27, x27, x2
  4046a8:	1e672890 	fadd	d16, d4, d7
  4046ac:	fd000390 	str	d16, [x28]
  4046b0:	6b1a019f 	cmp	w12, w26
  4046b4:	54fff3ac 	b.gt	404528 <_Z9cache_ikjILi4ELi16EEviiiiiiPfiS0_iS0_i+0x388>
  4046b8:	f94053fb 	ldr	x27, [sp, #160]
  4046bc:	f94073e8 	ldr	x8, [sp, #224]
  4046c0:	b940abe0 	ldr	w0, [sp, #168]
  4046c4:	b940c3f0 	ldr	w16, [sp, #192]
  4046c8:	b940d7f1 	ldr	w17, [sp, #212]
  4046cc:	b940fbf8 	ldr	w24, [sp, #248]
  4046d0:	b940fff7 	ldr	w23, [sp, #252]
  4046d4:	710002ff 	cmp	w23, #0x0
  4046d8:	54002fed 	b.le	404cd4 <_Z9cache_ikjILi4ELi16EEviiiiiiPfiS0_iS0_i+0xb34>
  4046dc:	510006b6 	sub	w22, w21, #0x1
  4046e0:	9000017c 	adrp	x28, 430000 <puts@GLIBC_2.17>
  4046e4:	910006d4 	add	x20, x22, #0x1
  4046e8:	9102238d 	add	x13, x28, #0x88
  4046ec:	2a1703fc 	mov	w28, w23
  4046f0:	b9013bf0 	str	w16, [sp, #312]
  4046f4:	d37ae68e 	lsl	x14, x20, #6
  4046f8:	b980eff0 	ldrsw	x16, [sp, #236]
  4046fc:	aa0e03f4 	mov	x20, x14
  404700:	93407e2f 	sxtw	x15, w17
  404704:	937a7eb2 	sbfiz	x18, x21, #6, #32
  404708:	531e76a5 	lsl	w5, w21, #2
  40470c:	f90063ff 	str	xzr, [sp, #192]
  404710:	b900d7e5 	str	w5, [sp, #212]
  404714:	f90073ef 	str	x15, [sp, #224]
  404718:	b900fbff 	str	wzr, [sp, #248]
  40471c:	f9009bf0 	str	x16, [sp, #304]
  404720:	f900abed 	str	x13, [sp, #336]
  404724:	f900c7f2 	str	x18, [sp, #392]
  404728:	b90193e0 	str	w0, [sp, #400]
  40472c:	b90197f1 	str	w17, [sp, #404]
  404730:	f900cfe8 	str	x8, [sp, #408]
  404734:	b940efe0 	ldr	w0, [sp, #236]
  404738:	9106c3e1 	add	x1, sp, #0x1b0
  40473c:	6b00039f 	cmp	w28, w0
  404740:	1a80d396 	csel	w22, w28, w0, le
  404744:	52800020 	mov	w0, #0x1                   	// #1
  404748:	6b1603f1 	negs	w17, w22
  40474c:	12000ede 	and	w30, w22, #0xf
  404750:	12000e23 	and	w3, w17, #0xf
  404754:	5a8347da 	csneg	w26, w30, w3, mi  // mi = first
  404758:	4b1a02d7 	sub	w23, w22, w26
  40475c:	97fff035 	bl	400830 <clock_gettime@plt>
  404760:	710002ff 	cmp	w23, #0x0
  404764:	5400102d 	b.le	404968 <_Z9cache_ikjILi4ELi16EEviiiiiiPfiS0_iS0_i+0x7c8>
  404768:	f94073e6 	ldr	x6, [sp, #224]
  40476c:	aa1b03e3 	mov	x3, x27
  404770:	f94087e1 	ldr	x1, [sp, #264]
  404774:	d2800005 	mov	x5, #0x0                   	// #0
  404778:	f940aff3 	ldr	x19, [sp, #344]
  40477c:	f940c7e9 	ldr	x9, [sp, #392]
  404780:	8b060824 	add	x4, x1, x6, lsl #2
  404784:	710002bf 	cmp	w21, #0x0
  404788:	54000e8d 	b.le	404958 <_Z9cache_ikjILi4ELi16EEviiiiiiPfiS0_iS0_i+0x7b8>
  40478c:	d1010122 	sub	x2, x9, #0x40
  404790:	8b09006a 	add	x10, x3, x9
  404794:	aa0403ec 	mov	x12, x4
  404798:	aa0303ed 	mov	x13, x3
  40479c:	d346fc47 	lsr	x7, x2, #6
  4047a0:	910004eb 	add	x11, x7, #0x1
  4047a4:	f2400968 	ands	x8, x11, #0x7
  4047a8:	54000720 	b.eq	40488c <_Z9cache_ikjILi4ELi16EEviiiiiiPfiS0_iS0_i+0x6ec>  // b.none
  4047ac:	f100051f 	cmp	x8, #0x1
  4047b0:	540005e0 	b.eq	40486c <_Z9cache_ikjILi4ELi16EEviiiiiiPfiS0_iS0_i+0x6cc>  // b.none
  4047b4:	f100091f 	cmp	x8, #0x2
  4047b8:	540004e0 	b.eq	404854 <_Z9cache_ikjILi4ELi16EEviiiiiiPfiS0_iS0_i+0x6b4>  // b.none
  4047bc:	f1000d1f 	cmp	x8, #0x3
  4047c0:	540003e0 	b.eq	40483c <_Z9cache_ikjILi4ELi16EEviiiiiiPfiS0_iS0_i+0x69c>  // b.none
  4047c4:	f100111f 	cmp	x8, #0x4
  4047c8:	540002e0 	b.eq	404824 <_Z9cache_ikjILi4ELi16EEviiiiiiPfiS0_iS0_i+0x684>  // b.none
  4047cc:	f100151f 	cmp	x8, #0x5
  4047d0:	540001e0 	b.eq	40480c <_Z9cache_ikjILi4ELi16EEviiiiiiPfiS0_iS0_i+0x66c>  // b.none
  4047d4:	f100191f 	cmp	x8, #0x6
  4047d8:	540000e0 	b.eq	4047f4 <_Z9cache_ikjILi4ELi16EEviiiiiiPfiS0_iS0_i+0x654>  // b.none
  4047dc:	ad404891 	ldp	q17, q18, [x4]
  4047e0:	9101006d 	add	x13, x3, #0x40
  4047e4:	8b13008c 	add	x12, x4, x19
  4047e8:	ad004871 	stp	q17, q18, [x3]
  4047ec:	ad415493 	ldp	q19, q21, [x4, #32]
  4047f0:	ad015473 	stp	q19, q21, [x3, #32]
  4047f4:	ad405d96 	ldp	q22, q23, [x12]
  4047f8:	ad005db6 	stp	q22, q23, [x13]
  4047fc:	ad416598 	ldp	q24, q25, [x12, #32]
  404800:	8b13018c 	add	x12, x12, x19
  404804:	ad0165b8 	stp	q24, q25, [x13, #32]
  404808:	910101ad 	add	x13, x13, #0x40
  40480c:	ad406d9a 	ldp	q26, q27, [x12]
  404810:	ad006dba 	stp	q26, q27, [x13]
  404814:	ad41759c 	ldp	q28, q29, [x12, #32]
  404818:	8b13018c 	add	x12, x12, x19
  40481c:	ad0175bc 	stp	q28, q29, [x13, #32]
  404820:	910101ad 	add	x13, x13, #0x40
  404824:	ad407994 	ldp	q20, q30, [x12]
  404828:	ad0079b4 	stp	q20, q30, [x13]
  40482c:	ad41099f 	ldp	q31, q2, [x12, #32]
  404830:	8b13018c 	add	x12, x12, x19
  404834:	ad0109bf 	stp	q31, q2, [x13, #32]
  404838:	910101ad 	add	x13, x13, #0x40
  40483c:	ad400583 	ldp	q3, q1, [x12]
  404840:	ad0005a3 	stp	q3, q1, [x13]
  404844:	ad411180 	ldp	q0, q4, [x12, #32]
  404848:	8b13018c 	add	x12, x12, x19
  40484c:	ad0111a0 	stp	q0, q4, [x13, #32]
  404850:	910101ad 	add	x13, x13, #0x40
  404854:	ad401985 	ldp	q5, q6, [x12]
  404858:	ad0019a5 	stp	q5, q6, [x13]
  40485c:	ad414187 	ldp	q7, q16, [x12, #32]
  404860:	8b13018c 	add	x12, x12, x19
  404864:	ad0141a7 	stp	q7, q16, [x13, #32]
  404868:	910101ad 	add	x13, x13, #0x40
  40486c:	ad404991 	ldp	q17, q18, [x12]
  404870:	ad0049b1 	stp	q17, q18, [x13]
  404874:	ad415593 	ldp	q19, q21, [x12, #32]
  404878:	8b13018c 	add	x12, x12, x19
  40487c:	ad0155b3 	stp	q19, q21, [x13, #32]
  404880:	910101ad 	add	x13, x13, #0x40
  404884:	eb0d015f 	cmp	x10, x13
  404888:	54000660 	b.eq	404954 <_Z9cache_ikjILi4ELi16EEviiiiiiPfiS0_iS0_i+0x7b4>  // b.none
  40488c:	ad405d96 	ldp	q22, q23, [x12]
  404890:	8b13018e 	add	x14, x12, x19
  404894:	910101af 	add	x15, x13, #0x40
  404898:	8b1301d2 	add	x18, x14, x19
  40489c:	910201b0 	add	x16, x13, #0x80
  4048a0:	8b130240 	add	x0, x18, x19
  4048a4:	ad005db6 	stp	q22, q23, [x13]
  4048a8:	910301b1 	add	x17, x13, #0xc0
  4048ac:	8b13001e 	add	x30, x0, x19
  4048b0:	ad416598 	ldp	q24, q25, [x12, #32]
  4048b4:	910401ba 	add	x26, x13, #0x100
  4048b8:	8b1303c1 	add	x1, x30, x19
  4048bc:	910501ab 	add	x11, x13, #0x140
  4048c0:	8b130026 	add	x6, x1, x19
  4048c4:	910601a8 	add	x8, x13, #0x180
  4048c8:	ad0165b8 	stp	q24, q25, [x13, #32]
  4048cc:	8b1300c2 	add	x2, x6, x19
  4048d0:	910701a7 	add	x7, x13, #0x1c0
  4048d4:	ad406dda 	ldp	q26, q27, [x14]
  4048d8:	910801ad 	add	x13, x13, #0x200
  4048dc:	8b13004c 	add	x12, x2, x19
  4048e0:	ad006dfa 	stp	q26, q27, [x15]
  4048e4:	ad4175dc 	ldp	q28, q29, [x14, #32]
  4048e8:	ad0175fc 	stp	q28, q29, [x15, #32]
  4048ec:	ad407a54 	ldp	q20, q30, [x18]
  4048f0:	ad007a14 	stp	q20, q30, [x16]
  4048f4:	ad410a5f 	ldp	q31, q2, [x18, #32]
  4048f8:	ad010a1f 	stp	q31, q2, [x16, #32]
  4048fc:	ad400403 	ldp	q3, q1, [x0]
  404900:	ad000623 	stp	q3, q1, [x17]
  404904:	ad411000 	ldp	q0, q4, [x0, #32]
  404908:	ad011220 	stp	q0, q4, [x17, #32]
  40490c:	ad401bc5 	ldp	q5, q6, [x30]
  404910:	ad001b45 	stp	q5, q6, [x26]
  404914:	ad4143c7 	ldp	q7, q16, [x30, #32]
  404918:	ad014347 	stp	q7, q16, [x26, #32]
  40491c:	ad404831 	ldp	q17, q18, [x1]
  404920:	ad004971 	stp	q17, q18, [x11]
  404924:	ad415433 	ldp	q19, q21, [x1, #32]
  404928:	ad015573 	stp	q19, q21, [x11, #32]
  40492c:	ad405cd6 	ldp	q22, q23, [x6]
  404930:	ad005d16 	stp	q22, q23, [x8]
  404934:	ad4164d8 	ldp	q24, q25, [x6, #32]
  404938:	ad016518 	stp	q24, q25, [x8, #32]
  40493c:	ad406c5a 	ldp	q26, q27, [x2]
  404940:	ad006cfa 	stp	q26, q27, [x7]
  404944:	ad41745c 	ldp	q28, q29, [x2, #32]
  404948:	ad0174fc 	stp	q28, q29, [x7, #32]
  40494c:	eb0d015f 	cmp	x10, x13
  404950:	54fff9e1 	b.ne	40488c <_Z9cache_ikjILi4ELi16EEviiiiiiPfiS0_iS0_i+0x6ec>  // b.any
  404954:	8b140063 	add	x3, x3, x20
  404958:	910040a5 	add	x5, x5, #0x10
  40495c:	91010084 	add	x4, x4, #0x40
  404960:	6b0502ff 	cmp	w23, w5
  404964:	54fff10c 	b.gt	404784 <_Z9cache_ikjILi4ELi16EEviiiiiiPfiS0_iS0_i+0x5e4>
  404968:	910703e1 	add	x1, sp, #0x1c0
  40496c:	52800020 	mov	w0, #0x1                   	// #1
  404970:	97ffefb0 	bl	400830 <clock_gettime@plt>
  404974:	a95b37ec 	ldp	x12, x13, [sp, #432]
  404978:	f940e7e9 	ldr	x9, [sp, #456]
  40497c:	f940e3ee 	ldr	x14, [sp, #448]
  404980:	cb0d0133 	sub	x19, x9, x13
  404984:	b940aff2 	ldr	w18, [sp, #172]
  404988:	cb0c01cf 	sub	x15, x14, x12
  40498c:	9e620274 	scvtf	d20, x19
  404990:	9e6201ff 	scvtf	d31, x15
  404994:	f940abea 	ldr	x10, [sp, #336]
  404998:	1f487e82 	fmadd	d2, d20, d8, d31
  40499c:	fd40015e 	ldr	d30, [x10]
  4049a0:	1e622bc3 	fadd	d3, d30, d2
  4049a4:	fd000143 	str	d3, [x10]
  4049a8:	7100025f 	cmp	w18, #0x0
  4049ac:	5400146d 	b.le	404c38 <_Z9cache_ikjILi4ELi16EEviiiiiiPfiS0_iS0_i+0xa98>
  4049b0:	b940dfe0 	ldr	w0, [sp, #220]
  4049b4:	52800010 	mov	w16, #0x0                   	// #0
  4049b8:	2a1703fa 	mov	w26, w23
  4049bc:	f900d7f4 	str	x20, [sp, #424]
  4049c0:	2a1003f4 	mov	w20, w16
  4049c4:	b900a3e0 	str	w0, [sp, #160]
  4049c8:	b900abff 	str	wzr, [sp, #168]
  4049cc:	b901a3fc 	str	w28, [sp, #416]
  4049d0:	b901a7f6 	str	w22, [sp, #420]
  4049d4:	7100035f 	cmp	w26, #0x0
  4049d8:	5400110d 	b.le	404bf8 <_Z9cache_ikjILi4ELi16EEviiiiiiPfiS0_iS0_i+0xa58>
  4049dc:	f94063f1 	ldr	x17, [sp, #192]
  4049e0:	51000756 	sub	w22, w26, #0x1
  4049e4:	b940a3fc 	ldr	w28, [sp, #160]
  4049e8:	52800020 	mov	w0, #0x1                   	// #1
  4049ec:	f9405fe1 	ldr	x1, [sp, #184]
  4049f0:	d34412c8 	ubfx	x8, x22, #4, #1
  4049f4:	f94067e6 	ldr	x6, [sp, #200]
  4049f8:	8b3cc23e 	add	x30, x17, w28, sxtw
  4049fc:	b940abeb 	ldr	w11, [sp, #168]
  404a00:	91020337 	add	x23, x25, #0x80
  404a04:	f9005be8 	str	x8, [sp, #176]
  404a08:	52800216 	mov	w22, #0x10                  	// #16
  404a0c:	8b1e08d3 	add	x19, x6, x30, lsl #2
  404a10:	8b2bc83c 	add	x28, x1, w11, sxtw #2
  404a14:	9106c3e1 	add	x1, sp, #0x1b0
  404a18:	97ffef86 	bl	400830 <clock_gettime@plt>
  404a1c:	2a1803e7 	mov	w7, w24
  404a20:	aa1303e6 	mov	x6, x19
  404a24:	aa1b03e5 	mov	x5, x27
  404a28:	aa1c03e4 	mov	x4, x28
  404a2c:	2a1503e3 	mov	w3, w21
  404a30:	52800002 	mov	w2, #0x0                   	// #0
  404a34:	52800201 	mov	w1, #0x10                  	// #16
  404a38:	52800080 	mov	w0, #0x4                   	// #4
  404a3c:	94005ed5 	bl	41c590 <_Z14register_blockiiiiPKfS0_Pfi>
  404a40:	91010273 	add	x19, x19, #0x40
  404a44:	910703e1 	add	x1, sp, #0x1c0
  404a48:	52800020 	mov	w0, #0x1                   	// #1
  404a4c:	97ffef79 	bl	400830 <clock_gettime@plt>
  404a50:	a95b0be7 	ldp	x7, x2, [sp, #432]
  404a54:	a95c17e3 	ldp	x3, x5, [sp, #448]
  404a58:	fd404324 	ldr	d4, [x25, #128]
  404a5c:	cb0200aa 	sub	x10, x5, x2
  404a60:	cb070064 	sub	x4, x3, x7
  404a64:	9e620141 	scvtf	d1, x10
  404a68:	9e620080 	scvtf	d0, x4
  404a6c:	1f480025 	fmadd	d5, d1, d8, d0
  404a70:	1e652886 	fadd	d6, d4, d5
  404a74:	fd004326 	str	d6, [x25, #128]
  404a78:	6b16035f 	cmp	w26, w22
  404a7c:	54000bed 	b.le	404bf8 <_Z9cache_ikjILi4ELi16EEviiiiiiPfiS0_iS0_i+0xa58>
  404a80:	b940b3ec 	ldr	w12, [sp, #176]
  404a84:	340003ec 	cbz	w12, 404b00 <_Z9cache_ikjILi4ELi16EEviiiiiiPfiS0_iS0_i+0x960>
  404a88:	9106c3e1 	add	x1, sp, #0x1b0
  404a8c:	52800020 	mov	w0, #0x1                   	// #1
  404a90:	97ffef68 	bl	400830 <clock_gettime@plt>
  404a94:	531c6ead 	lsl	w13, w21, #4
  404a98:	aa1303e6 	mov	x6, x19
  404a9c:	2a1803e7 	mov	w7, w24
  404aa0:	aa1c03e4 	mov	x4, x28
  404aa4:	8b2dcb65 	add	x5, x27, w13, sxtw #2
  404aa8:	2a1503e3 	mov	w3, w21
  404aac:	52800002 	mov	w2, #0x0                   	// #0
  404ab0:	2a1603e1 	mov	w1, w22
  404ab4:	52800080 	mov	w0, #0x4                   	// #4
  404ab8:	94005eb6 	bl	41c590 <_Z14register_blockiiiiPKfS0_Pfi>
  404abc:	910703e1 	add	x1, sp, #0x1c0
  404ac0:	52800020 	mov	w0, #0x1                   	// #1
  404ac4:	97ffef5b 	bl	400830 <clock_gettime@plt>
  404ac8:	91010273 	add	x19, x19, #0x40
  404acc:	a95b3be9 	ldp	x9, x14, [sp, #432]
  404ad0:	52800416 	mov	w22, #0x20                  	// #32
  404ad4:	a95c4bef 	ldp	x15, x18, [sp, #448]
  404ad8:	fd404327 	ldr	d7, [x25, #128]
  404adc:	cb0e0240 	sub	x0, x18, x14
  404ae0:	cb0901eb 	sub	x11, x15, x9
  404ae4:	9e620011 	scvtf	d17, x0
  404ae8:	9e620170 	scvtf	d16, x11
  404aec:	1f484232 	fmadd	d18, d17, d8, d16
  404af0:	1e7228f3 	fadd	d19, d7, d18
  404af4:	fd004333 	str	d19, [x25, #128]
  404af8:	6b16035f 	cmp	w26, w22
  404afc:	540007ed 	b.le	404bf8 <_Z9cache_ikjILi4ELi16EEviiiiiiPfiS0_iS0_i+0xa58>
  404b00:	9106c3e1 	add	x1, sp, #0x1b0
  404b04:	52800020 	mov	w0, #0x1                   	// #1
  404b08:	97ffef4a 	bl	400830 <clock_gettime@plt>
  404b0c:	13047ec1 	asr	w1, w22, #4
  404b10:	aa1303e6 	mov	x6, x19
  404b14:	2a1803e7 	mov	w7, w24
  404b18:	aa1c03e4 	mov	x4, x28
  404b1c:	2a1503e3 	mov	w3, w21
  404b20:	52800002 	mov	w2, #0x0                   	// #0
  404b24:	1b157c28 	mul	w8, w1, w21
  404b28:	52800080 	mov	w0, #0x4                   	// #4
  404b2c:	52800201 	mov	w1, #0x10                  	// #16
  404b30:	110042d6 	add	w22, w22, #0x10
  404b34:	91010273 	add	x19, x19, #0x40
  404b38:	531c6d05 	lsl	w5, w8, #4
  404b3c:	8b25cb65 	add	x5, x27, w5, sxtw #2
  404b40:	94005e94 	bl	41c590 <_Z14register_blockiiiiPKfS0_Pfi>
  404b44:	910703e1 	add	x1, sp, #0x1c0
  404b48:	52800020 	mov	w0, #0x1                   	// #1
  404b4c:	97ffef39 	bl	400830 <clock_gettime@plt>
  404b50:	a95b1fe6 	ldp	x6, x7, [sp, #432]
  404b54:	9106c3e1 	add	x1, sp, #0x1b0
  404b58:	a95c0be3 	ldp	x3, x2, [sp, #448]
  404b5c:	52800020 	mov	w0, #0x1                   	// #1
  404b60:	fd4002f5 	ldr	d21, [x23]
  404b64:	cb07004a 	sub	x10, x2, x7
  404b68:	cb060064 	sub	x4, x3, x6
  404b6c:	9e620157 	scvtf	d23, x10
  404b70:	9e620096 	scvtf	d22, x4
  404b74:	1f485af8 	fmadd	d24, d23, d8, d22
  404b78:	1e782ab9 	fadd	d25, d21, d24
  404b7c:	fd0002f9 	str	d25, [x23]
  404b80:	97ffef2c 	bl	400830 <clock_gettime@plt>
  404b84:	13047ecc 	asr	w12, w22, #4
  404b88:	aa1303e6 	mov	x6, x19
  404b8c:	2a1803e7 	mov	w7, w24
  404b90:	aa1c03e4 	mov	x4, x28
  404b94:	2a1503e3 	mov	w3, w21
  404b98:	52800002 	mov	w2, #0x0                   	// #0
  404b9c:	1b157d8d 	mul	w13, w12, w21
  404ba0:	52800201 	mov	w1, #0x10                  	// #16
  404ba4:	52800080 	mov	w0, #0x4                   	// #4
  404ba8:	110042d6 	add	w22, w22, #0x10
  404bac:	91010273 	add	x19, x19, #0x40
  404bb0:	531c6da9 	lsl	w9, w13, #4
  404bb4:	8b29cb65 	add	x5, x27, w9, sxtw #2
  404bb8:	94005e76 	bl	41c590 <_Z14register_blockiiiiPKfS0_Pfi>
  404bbc:	910703e1 	add	x1, sp, #0x1c0
  404bc0:	52800020 	mov	w0, #0x1                   	// #1
  404bc4:	97ffef1b 	bl	400830 <clock_gettime@plt>
  404bc8:	a95b3fee 	ldp	x14, x15, [sp, #432]
  404bcc:	a95c2ff2 	ldp	x18, x11, [sp, #448]
  404bd0:	fd4002fa 	ldr	d26, [x23]
  404bd4:	cb0f0160 	sub	x0, x11, x15
  404bd8:	cb0e0241 	sub	x1, x18, x14
  404bdc:	9e62001c 	scvtf	d28, x0
  404be0:	9e62003b 	scvtf	d27, x1
  404be4:	1f486f9d 	fmadd	d29, d28, d8, d27
  404be8:	1e7d2b54 	fadd	d20, d26, d29
  404bec:	fd0002f4 	str	d20, [x23]
  404bf0:	6b16035f 	cmp	w26, w22
  404bf4:	54fff86c 	b.gt	404b00 <_Z9cache_ikjILi4ELi16EEviiiiiiPfiS0_iS0_i+0x960>
  404bf8:	b940a3f0 	ldr	w16, [sp, #160]
  404bfc:	11001294 	add	w20, w20, #0x4
  404c00:	b940abfc 	ldr	w28, [sp, #168]
  404c04:	b940d3f7 	ldr	w23, [sp, #208]
  404c08:	b940d7fe 	ldr	w30, [sp, #212]
  404c0c:	b940afe5 	ldr	w5, [sp, #172]
  404c10:	0b170211 	add	w17, w16, w23
  404c14:	0b1e0388 	add	w8, w28, w30
  404c18:	b900a3f1 	str	w17, [sp, #160]
  404c1c:	b900abe8 	str	w8, [sp, #168]
  404c20:	6b05029f 	cmp	w20, w5
  404c24:	54ffed8b 	b.lt	4049d4 <_Z9cache_ikjILi4ELi16EEviiiiiiPfiS0_iS0_i+0x834>  // b.tstop
  404c28:	f940d7f4 	ldr	x20, [sp, #424]
  404c2c:	2a1a03f7 	mov	w23, w26
  404c30:	b941a3fc 	ldr	w28, [sp, #416]
  404c34:	b941a7f6 	ldr	w22, [sp, #420]
  404c38:	f94067e9 	ldr	x9, [sp, #200]
  404c3c:	f90013e9 	str	x9, [sp, #32]
  404c40:	f94087ec 	ldr	x12, [sp, #264]
  404c44:	f9000bec 	str	x12, [sp, #16]
  404c48:	b940dbe3 	ldr	w3, [sp, #216]
  404c4c:	2a1703e7 	mov	w7, w23
  404c50:	b9413be2 	ldr	w2, [sp, #312]
  404c54:	2a1603e4 	mov	w4, w22
  404c58:	b94167ea 	ldr	w10, [sp, #356]
  404c5c:	2a1503e5 	mov	w5, w21
  404c60:	b94163ed 	ldr	w13, [sp, #352]
  404c64:	b940afe6 	ldr	w6, [sp, #172]
  404c68:	b940ebe0 	ldr	w0, [sp, #232]
  404c6c:	f9407bf3 	ldr	x19, [sp, #240]
  404c70:	f90003f3 	str	x19, [sp]
  404c74:	b940fbfa 	ldr	w26, [sp, #248]
  404c78:	b9000bea 	str	w10, [sp, #8]
  404c7c:	b9001bed 	str	w13, [sp, #24]
  404c80:	2a1a03e1 	mov	w1, w26
  404c84:	b9002bf8 	str	w24, [sp, #40]
  404c88:	97fff4b2 	bl	401f50 <_Z10tail_blockILi4ELi16EEviiiiiiiiPfiS0_iS0_i>
  404c8c:	f94063e2 	ldr	x2, [sp, #192]
  404c90:	f94073ef 	ldr	x15, [sp, #224]
  404c94:	f9409be4 	ldr	x4, [sp, #304]
  404c98:	b940efe7 	ldr	w7, [sp, #236]
  404c9c:	b940ffeb 	ldr	w11, [sp, #252]
  404ca0:	8b04004e 	add	x14, x2, x4
  404ca4:	0b070343 	add	w3, w26, w7
  404ca8:	8b0401f2 	add	x18, x15, x4
  404cac:	f90063ee 	str	x14, [sp, #192]
  404cb0:	4b07039c 	sub	w28, w28, w7
  404cb4:	f90073f2 	str	x18, [sp, #224]
  404cb8:	b900fbe3 	str	w3, [sp, #248]
  404cbc:	6b03017f 	cmp	w11, w3
  404cc0:	54ffd3ac 	b.gt	404734 <_Z9cache_ikjILi4ELi16EEviiiiiiPfiS0_iS0_i+0x594>
  404cc4:	f940cfe8 	ldr	x8, [sp, #408]
  404cc8:	b9413bf0 	ldr	w16, [sp, #312]
  404ccc:	b94193e0 	ldr	w0, [sp, #400]
  404cd0:	b94197f1 	ldr	w17, [sp, #404]
  404cd4:	f940a7fe 	ldr	x30, [sp, #328]
  404cd8:	b94107f5 	ldr	w21, [sp, #260]
  404cdc:	b9413fe1 	ldr	w1, [sp, #316]
  404ce0:	8b1e0108 	add	x8, x8, x30
  404ce4:	b94103e5 	ldr	w5, [sp, #256]
  404ce8:	0b150210 	add	w16, w16, w21
  404cec:	4b150000 	sub	w0, w0, w21
  404cf0:	0b010231 	add	w17, w17, w1
  404cf4:	6b1000bf 	cmp	w5, w16
  404cf8:	54ffbe2c 	b.gt	4044bc <_Z9cache_ikjILi4ELi16EEviiiiiiPfiS0_iS0_i+0x31c>
  404cfc:	910603f9 	add	x25, sp, #0x180
  404d00:	2a1803f6 	mov	w22, w24
  404d04:	a956d7fa 	ldp	x26, x21, [sp, #360]
  404d08:	297f5f38 	ldp	w24, w23, [x25, #-8]
  404d0c:	29407334 	ldp	w20, w28, [x25]
  404d10:	4b1c0318 	sub	w24, w24, w28
  404d14:	b940dff3 	ldr	w19, [sp, #220]
  404d18:	b940ebea 	ldr	w10, [sp, #232]
  404d1c:	b94143ec 	ldr	w12, [sp, #320]
  404d20:	b94147e6 	ldr	w6, [sp, #324]
  404d24:	0b1c014d 	add	w13, w10, w28
  404d28:	0b0c0269 	add	w9, w19, w12
  404d2c:	b900dfe9 	str	w9, [sp, #220]
  404d30:	b900ebed 	str	w13, [sp, #232]
  404d34:	0b0602f7 	add	w23, w23, w6
  404d38:	6b0d029f 	cmp	w20, w13
  404d3c:	54ffac8c 	b.gt	4042cc <_Z9cache_ikjILi4ELi16EEviiiiiiPfiS0_iS0_i+0x12c>
  404d40:	fd404be8 	ldr	d8, [sp, #144]
  404d44:	aa1b03fc 	mov	x28, x27
  404d48:	f9405fe0 	ldr	x0, [sp, #184]
  404d4c:	97ffeea5 	bl	4007e0 <free@plt>
  404d50:	a9437bfd 	ldp	x29, x30, [sp, #48]
  404d54:	aa1c03e0 	mov	x0, x28
  404d58:	a94453f3 	ldp	x19, x20, [sp, #64]
  404d5c:	a9455bf5 	ldp	x21, x22, [sp, #80]
  404d60:	a94663f7 	ldp	x23, x24, [sp, #96]
  404d64:	a9476bf9 	ldp	x25, x26, [sp, #112]
  404d68:	a94873fb 	ldp	x27, x28, [sp, #128]
  404d6c:	910743ff 	add	sp, sp, #0x1d0
  404d70:	17ffee9c 	b	4007e0 <free@plt>
  404d74:	d503201f 	nop
  404d78:	d503201f 	nop
  404d7c:	d503201f 	nop

0000000000404d80 <_Z9cache_jikILi4ELi16EEviiiiiiPfiS0_iS0_i>:
  404d80:	d10703ff 	sub	sp, sp, #0x1c0
  404d84:	2a0303e8 	mov	w8, w3
  404d88:	1b037ca3 	mul	w3, w5, w3
  404d8c:	a9037bfd 	stp	x29, x30, [sp, #48]
  404d90:	9100c3fd 	add	x29, sp, #0x30
  404d94:	a90453f3 	stp	x19, x20, [sp, #64]
  404d98:	2a0503f3 	mov	w19, w5
  404d9c:	2a0103f4 	mov	w20, w1
  404da0:	b9010be5 	str	w5, [sp, #264]
  404da4:	f940e3e5 	ldr	x5, [sp, #448]
  404da8:	a9055bf5 	stp	x21, x22, [sp, #80]
  404dac:	2a0403f6 	mov	w22, w4
  404db0:	a9076bf9 	stp	x25, x26, [sp, #112]
  404db4:	2a0003f9 	mov	w25, w0
  404db8:	b941cbf5 	ldr	w21, [sp, #456]
  404dbc:	f940ebe0 	ldr	x0, [sp, #464]
  404dc0:	a90663f7 	stp	x23, x24, [sp, #96]
  404dc4:	a90873fb 	stp	x27, x28, [sp, #128]
  404dc8:	b941dbfc 	ldr	w28, [sp, #472]
  404dcc:	b900a3e7 	str	w7, [sp, #160]
  404dd0:	b900afe8 	str	w8, [sp, #172]
  404dd4:	a90c83e6 	stp	x6, x0, [sp, #200]
  404dd8:	d2800800 	mov	x0, #0x40                  	// #64
  404ddc:	b90113e2 	str	w2, [sp, #272]
  404de0:	b90117e4 	str	w4, [sp, #276]
  404de4:	f9008fe5 	str	x5, [sp, #280]
  404de8:	b9015fe1 	str	w1, [sp, #348]
  404dec:	937e7c61 	sbfiz	x1, x3, #2, #32
  404df0:	b9016bf5 	str	w21, [sp, #360]
  404df4:	97ffee73 	bl	4007c0 <aligned_alloc@plt>
  404df8:	1b137ec1 	mul	w1, w22, w19
  404dfc:	f90063e0 	str	x0, [sp, #192]
  404e00:	d2800800 	mov	x0, #0x40                  	// #64
  404e04:	937e7c21 	sbfiz	x1, x1, #2, #32
  404e08:	97ffee6e 	bl	4007c0 <aligned_alloc@plt>
  404e0c:	aa0003f7 	mov	x23, x0
  404e10:	7100029f 	cmp	w20, #0x0
  404e14:	5400568d 	b.le	4058e4 <_Z9cache_jikILi4ELi16EEviiiiiiPfiS0_iS0_i+0xb64>
  404e18:	b940a3e4 	ldr	w4, [sp, #160]
  404e1c:	1b137ea2 	mul	w2, w21, w19
  404e20:	b940afe7 	ldr	w7, [sp, #172]
  404e24:	52800189 	mov	w9, #0xc                   	// #12
  404e28:	d00000de 	adrp	x30, 41e000 <_Z21register_block_vv_3x4ILi3ELi16EEviPKfS1_Pfi+0xe0>
  404e2c:	937e7f9b 	sbfiz	x27, x28, #2, #32
  404e30:	531e748a 	lsl	w10, w4, #2
  404e34:	937e7eb2 	sbfiz	x18, x21, #2, #32
  404e38:	93407ed1 	sxtw	x17, w22
  404e3c:	9b297c8d 	smull	x13, w4, w9
  404e40:	1b077f8b 	mul	w11, w28, w7
  404e44:	aa1b03f5 	mov	x21, x27
  404e48:	1b047cf0 	mul	w16, w7, w4
  404e4c:	2a0703fa 	mov	w26, w7
  404e50:	2a1403f6 	mov	w22, w20
  404e54:	fd004be8 	str	d8, [sp, #144]
  404e58:	fd41ebc8 	ldr	d8, [x30, #976]
  404e5c:	93407c46 	sxtw	x6, w2
  404e60:	93407d4e 	sxtw	x14, w10
  404e64:	93407c8c 	sxtw	x12, w4
  404e68:	937d7c8f 	sbfiz	x15, x4, #3, #32
  404e6c:	531e7798 	lsl	w24, w28, #2
  404e70:	f9005bff 	str	xzr, [sp, #176]
  404e74:	b900e3f8 	str	w24, [sp, #224]
  404e78:	f90077ee 	str	x14, [sp, #232]
  404e7c:	b90107ff 	str	wzr, [sp, #260]
  404e80:	a91233ed 	stp	x13, x12, [sp, #288]
  404e84:	a9131bef 	stp	x15, x6, [sp, #304]
  404e88:	b9014feb 	str	w11, [sp, #332]
  404e8c:	f900abf1 	str	x17, [sp, #336]
  404e90:	b9015bf0 	str	w16, [sp, #344]
  404e94:	f900b3f2 	str	x18, [sp, #352]
  404e98:	b9016fe4 	str	w4, [sp, #364]
  404e9c:	b90173fc 	str	w28, [sp, #368]
  404ea0:	b94117e8 	ldr	w8, [sp, #276]
  404ea4:	6b0802df 	cmp	w22, w8
  404ea8:	1a88d2d3 	csel	w19, w22, w8, le
  404eac:	b9014bf3 	str	w19, [sp, #328]
  404eb0:	6b1303e3 	negs	w3, w19
  404eb4:	12000e74 	and	w20, w19, #0xf
  404eb8:	12000c7c 	and	w28, w3, #0xf
  404ebc:	5a9c4680 	csneg	w0, w20, w28, mi  // mi = first
  404ec0:	4b000278 	sub	w24, w19, w0
  404ec4:	7100033f 	cmp	w25, #0x0
  404ec8:	54004f4d 	b.le	4058b0 <_Z9cache_jikILi4ELi16EEviiiiiiPfiS0_iS0_i+0xb30>
  404ecc:	f9405be5 	ldr	x5, [sp, #176]
  404ed0:	937e7e7b 	sbfiz	x27, x19, #2, #32
  404ed4:	f9406be1 	ldr	x1, [sp, #208]
  404ed8:	72000b22 	ands	w2, w25, #0x7
  404edc:	5280001c 	mov	w28, #0x0                   	// #0
  404ee0:	8b05082d 	add	x13, x1, x5, lsl #2
  404ee4:	54000720 	b.eq	404fc8 <_Z9cache_jikILi4ELi16EEviiiiiiPfiS0_iS0_i+0x248>  // b.none
  404ee8:	7100045f 	cmp	w2, #0x1
  404eec:	540005e0 	b.eq	404fa8 <_Z9cache_jikILi4ELi16EEviiiiiiPfiS0_iS0_i+0x228>  // b.none
  404ef0:	7100085f 	cmp	w2, #0x2
  404ef4:	540004e0 	b.eq	404f90 <_Z9cache_jikILi4ELi16EEviiiiiiPfiS0_iS0_i+0x210>  // b.none
  404ef8:	71000c5f 	cmp	w2, #0x3
  404efc:	540003e0 	b.eq	404f78 <_Z9cache_jikILi4ELi16EEviiiiiiPfiS0_iS0_i+0x1f8>  // b.none
  404f00:	7100105f 	cmp	w2, #0x4
  404f04:	540002e0 	b.eq	404f60 <_Z9cache_jikILi4ELi16EEviiiiiiPfiS0_iS0_i+0x1e0>  // b.none
  404f08:	7100145f 	cmp	w2, #0x5
  404f0c:	540001e0 	b.eq	404f48 <_Z9cache_jikILi4ELi16EEviiiiiiPfiS0_iS0_i+0x1c8>  // b.none
  404f10:	7100185f 	cmp	w2, #0x6
  404f14:	540000e0 	b.eq	404f30 <_Z9cache_jikILi4ELi16EEviiiiiiPfiS0_iS0_i+0x1b0>  // b.none
  404f18:	aa0d03e0 	mov	x0, x13
  404f1c:	aa1b03e2 	mov	x2, x27
  404f20:	52800001 	mov	w1, #0x0                   	// #0
  404f24:	97ffee37 	bl	400800 <memset@plt>
  404f28:	8b15000d 	add	x13, x0, x21
  404f2c:	5280003c 	mov	w28, #0x1                   	// #1
  404f30:	aa0d03e0 	mov	x0, x13
  404f34:	aa1b03e2 	mov	x2, x27
  404f38:	52800001 	mov	w1, #0x0                   	// #0
  404f3c:	1100079c 	add	w28, w28, #0x1
  404f40:	97ffee30 	bl	400800 <memset@plt>
  404f44:	8b15000d 	add	x13, x0, x21
  404f48:	aa0d03e0 	mov	x0, x13
  404f4c:	aa1b03e2 	mov	x2, x27
  404f50:	52800001 	mov	w1, #0x0                   	// #0
  404f54:	1100079c 	add	w28, w28, #0x1
  404f58:	97ffee2a 	bl	400800 <memset@plt>
  404f5c:	8b15000d 	add	x13, x0, x21
  404f60:	aa0d03e0 	mov	x0, x13
  404f64:	aa1b03e2 	mov	x2, x27
  404f68:	52800001 	mov	w1, #0x0                   	// #0
  404f6c:	1100079c 	add	w28, w28, #0x1
  404f70:	97ffee24 	bl	400800 <memset@plt>
  404f74:	8b15000d 	add	x13, x0, x21
  404f78:	aa0d03e0 	mov	x0, x13
  404f7c:	aa1b03e2 	mov	x2, x27
  404f80:	52800001 	mov	w1, #0x0                   	// #0
  404f84:	1100079c 	add	w28, w28, #0x1
  404f88:	97ffee1e 	bl	400800 <memset@plt>
  404f8c:	8b15000d 	add	x13, x0, x21
  404f90:	aa0d03e0 	mov	x0, x13
  404f94:	aa1b03e2 	mov	x2, x27
  404f98:	52800001 	mov	w1, #0x0                   	// #0
  404f9c:	1100079c 	add	w28, w28, #0x1
  404fa0:	97ffee18 	bl	400800 <memset@plt>
  404fa4:	8b15000d 	add	x13, x0, x21
  404fa8:	aa0d03e0 	mov	x0, x13
  404fac:	aa1b03e2 	mov	x2, x27
  404fb0:	52800001 	mov	w1, #0x0                   	// #0
  404fb4:	1100079c 	add	w28, w28, #0x1
  404fb8:	97ffee12 	bl	400800 <memset@plt>
  404fbc:	8b15000d 	add	x13, x0, x21
  404fc0:	6b1c033f 	cmp	w25, w28
  404fc4:	540004a0 	b.eq	405058 <_Z9cache_jikILi4ELi16EEviiiiiiPfiS0_iS0_i+0x2d8>  // b.none
  404fc8:	aa0d03e0 	mov	x0, x13
  404fcc:	aa1b03e2 	mov	x2, x27
  404fd0:	52800001 	mov	w1, #0x0                   	// #0
  404fd4:	97ffee0b 	bl	400800 <memset@plt>
  404fd8:	aa1b03e2 	mov	x2, x27
  404fdc:	52800001 	mov	w1, #0x0                   	// #0
  404fe0:	8b150000 	add	x0, x0, x21
  404fe4:	97ffee07 	bl	400800 <memset@plt>
  404fe8:	aa1b03e2 	mov	x2, x27
  404fec:	52800001 	mov	w1, #0x0                   	// #0
  404ff0:	8b150000 	add	x0, x0, x21
  404ff4:	97ffee03 	bl	400800 <memset@plt>
  404ff8:	aa1b03e2 	mov	x2, x27
  404ffc:	52800001 	mov	w1, #0x0                   	// #0
  405000:	8b150000 	add	x0, x0, x21
  405004:	97ffedff 	bl	400800 <memset@plt>
  405008:	aa1b03e2 	mov	x2, x27
  40500c:	52800001 	mov	w1, #0x0                   	// #0
  405010:	8b150000 	add	x0, x0, x21
  405014:	97ffedfb 	bl	400800 <memset@plt>
  405018:	aa1b03e2 	mov	x2, x27
  40501c:	52800001 	mov	w1, #0x0                   	// #0
  405020:	8b150000 	add	x0, x0, x21
  405024:	97ffedf7 	bl	400800 <memset@plt>
  405028:	aa1b03e2 	mov	x2, x27
  40502c:	52800001 	mov	w1, #0x0                   	// #0
  405030:	8b150000 	add	x0, x0, x21
  405034:	97ffedf3 	bl	400800 <memset@plt>
  405038:	aa1b03e2 	mov	x2, x27
  40503c:	8b150000 	add	x0, x0, x21
  405040:	52800001 	mov	w1, #0x0                   	// #0
  405044:	1100239c 	add	w28, w28, #0x8
  405048:	97ffedee 	bl	400800 <memset@plt>
  40504c:	8b15000d 	add	x13, x0, x21
  405050:	6b1c033f 	cmp	w25, w28
  405054:	54fffba1 	b.ne	404fc8 <_Z9cache_jikILi4ELi16EEviiiiiiPfiS0_iS0_i+0x248>  // b.any
  405058:	b94173fb 	ldr	w27, [sp, #368]
  40505c:	2a1a03f0 	mov	w16, w26
  405060:	2a1c03ef 	mov	w15, w28
  405064:	2a1803fa 	mov	w26, w24
  405068:	b90177f6 	str	w22, [sp, #372]
  40506c:	2a1903f6 	mov	w22, w25
  405070:	52800011 	mov	w17, #0x0                   	// #0
  405074:	52800013 	mov	w19, #0x0                   	// #0
  405078:	52800014 	mov	w20, #0x0                   	// #0
  40507c:	f900bff5 	str	x21, [sp, #376]
  405080:	b90183f9 	str	w25, [sp, #384]
  405084:	6b1002df 	cmp	w22, w16
  405088:	b94113f2 	ldr	w18, [sp, #272]
  40508c:	1a90d2d9 	csel	w25, w22, w16, le
  405090:	6b1903f5 	negs	w21, w25
  405094:	1200073e 	and	w30, w25, #0x3
  405098:	120006a1 	and	w1, w21, #0x3
  40509c:	5a8147c9 	csneg	w9, w30, w1, mi  // mi = first
  4050a0:	4b090326 	sub	w6, w25, w9
  4050a4:	b900afe6 	str	w6, [sp, #172]
  4050a8:	7100025f 	cmp	w18, #0x0
  4050ac:	54003ead 	b.le	405880 <_Z9cache_jikILi4ELi16EEviiiiiiPfiS0_iS0_i+0xb00>
  4050b0:	910633e2 	add	x2, sp, #0x18c
  4050b4:	b9810be7 	ldrsw	x7, [sp, #264]
  4050b8:	f9405bfc 	ldr	x28, [sp, #176]
  4050bc:	2a1303f8 	mov	w24, w19
  4050c0:	93407e2b 	sxtw	x11, w17
  4050c4:	f0000144 	adrp	x4, 430000 <puts@GLIBC_2.17>
  4050c8:	9102208a 	add	x10, x4, #0x88
  4050cc:	293f644f 	stp	w15, w25, [x2, #-8]
  4050d0:	29004456 	stp	w22, w17, [x2]
  4050d4:	f9006fea 	str	x10, [sp, #216]
  4050d8:	f9007bfc 	str	x28, [sp, #240]
  4050dc:	f9007feb 	str	x11, [sp, #248]
  4050e0:	b90103f2 	str	w18, [sp, #256]
  4050e4:	b9010fff 	str	wzr, [sp, #268]
  4050e8:	f900a3e7 	str	x7, [sp, #320]
  4050ec:	b90197f0 	str	w16, [sp, #404]
  4050f0:	b94103ed 	ldr	w13, [sp, #256]
  4050f4:	b9410bf6 	ldr	w22, [sp, #264]
  4050f8:	b940afee 	ldr	w14, [sp, #172]
  4050fc:	6b1601bf 	cmp	w13, w22
  405100:	1a96d1b6 	csel	w22, w13, w22, le
  405104:	710001df 	cmp	w14, #0x0
  405108:	54000f6d 	b.le	4052f4 <_Z9cache_jikILi4ELi16EEviiiiiiPfiS0_iS0_i+0x574>
  40510c:	f94063e3 	ldr	x3, [sp, #192]
  405110:	531e76cc 	lsl	w12, w22, #2
  405114:	93407ecf 	sxtw	x15, w22
  405118:	b900bbfa 	str	w26, [sp, #184]
  40511c:	b9019bf8 	str	w24, [sp, #408]
  405120:	937e7d88 	sbfiz	x8, x12, #2, #32
  405124:	a9526bf8 	ldp	x24, x26, [sp, #288]
  405128:	cb0f13f3 	neg	x19, x15, lsl #4
  40512c:	f9407ffc 	ldr	x28, [sp, #248]
  405130:	b9019ffb 	str	w27, [sp, #412]
  405134:	f9409bfb 	ldr	x27, [sp, #304]
  405138:	8b080075 	add	x21, x3, x8
  40513c:	f90053f7 	str	x23, [sp, #160]
  405140:	2a0e03f7 	mov	w23, w14
  405144:	b900e7f4 	str	w20, [sp, #228]
  405148:	aa1303f4 	mov	x20, x19
  40514c:	aa0803f3 	mov	x19, x8
  405150:	52800019 	mov	w25, #0x0                   	// #0
  405154:	910683e1 	add	x1, sp, #0x1a0
  405158:	52800020 	mov	w0, #0x1                   	// #1
  40515c:	97ffedb5 	bl	400830 <clock_gettime@plt>
  405160:	8b150280 	add	x0, x20, x21
  405164:	710002df 	cmp	w22, #0x0
  405168:	5400090d 	b.le	405288 <_Z9cache_jikILi4ELi16EEviiiiiiPfiS0_iS0_i+0x508>
  40516c:	cb0002a5 	sub	x5, x21, x0
  405170:	d37ef790 	lsl	x16, x28, #2
  405174:	d10040b1 	sub	x17, x5, #0x10
  405178:	f94067e6 	ldr	x6, [sp, #200]
  40517c:	d344fe3e 	lsr	x30, x17, #4
  405180:	910007c1 	add	x1, x30, #0x1
  405184:	f2400429 	ands	x9, x1, #0x3
  405188:	8b1000c2 	add	x2, x6, x16
  40518c:	54000400 	b.eq	40520c <_Z9cache_jikILi4ELi16EEviiiiiiPfiS0_iS0_i+0x48c>  // b.none
  405190:	f100053f 	cmp	x9, #0x1
  405194:	54000280 	b.eq	4051e4 <_Z9cache_jikILi4ELi16EEviiiiiiPfiS0_iS0_i+0x464>  // b.none
  405198:	f100093f 	cmp	x9, #0x2
  40519c:	54000140 	b.eq	4051c4 <_Z9cache_jikILi4ELi16EEviiiiiiPfiS0_iS0_i+0x444>  // b.none
  4051a0:	f94067f2 	ldr	x18, [sp, #200]
  4051a4:	bc7a7842 	ldr	s2, [x2, x26, lsl #2]
  4051a8:	bc7b6841 	ldr	s1, [x2, x27]
  4051ac:	bc786840 	ldr	s0, [x2, x24]
  4051b0:	91001042 	add	x2, x2, #0x4
  4051b4:	bc706a43 	ldr	s3, [x18, x16]
  4051b8:	2d010001 	stp	s1, s0, [x0, #8]
  4051bc:	2d000803 	stp	s3, s2, [x0]
  4051c0:	91004000 	add	x0, x0, #0x10
  4051c4:	bc7a7844 	ldr	s4, [x2, x26, lsl #2]
  4051c8:	bc7b6845 	ldr	s5, [x2, x27]
  4051cc:	bc786846 	ldr	s6, [x2, x24]
  4051d0:	91001042 	add	x2, x2, #0x4
  4051d4:	bc5fc047 	ldur	s7, [x2, #-4]
  4051d8:	2d011805 	stp	s5, s6, [x0, #8]
  4051dc:	2d001007 	stp	s7, s4, [x0]
  4051e0:	91004000 	add	x0, x0, #0x10
  4051e4:	bc7a7850 	ldr	s16, [x2, x26, lsl #2]
  4051e8:	bc7b6851 	ldr	s17, [x2, x27]
  4051ec:	bc786852 	ldr	s18, [x2, x24]
  4051f0:	91001042 	add	x2, x2, #0x4
  4051f4:	bc5fc053 	ldur	s19, [x2, #-4]
  4051f8:	2d014811 	stp	s17, s18, [x0, #8]
  4051fc:	2d004013 	stp	s19, s16, [x0]
  405200:	91004000 	add	x0, x0, #0x10
  405204:	eb15001f 	cmp	x0, x21
  405208:	54000400 	b.eq	405288 <_Z9cache_jikILi4ELi16EEviiiiiiPfiS0_iS0_i+0x508>  // b.none
  40520c:	91001044 	add	x4, x2, #0x4
  405210:	9100204a 	add	x10, x2, #0x8
  405214:	91003047 	add	x7, x2, #0xc
  405218:	bc7a7855 	ldr	s21, [x2, x26, lsl #2]
  40521c:	2d407854 	ldp	s20, s30, [x2]
  405220:	9100c00b 	add	x11, x0, #0x30
  405224:	2d41085f 	ldp	s31, s2, [x2, #8]
  405228:	bc7b6856 	ldr	s22, [x2, x27]
  40522c:	bc786857 	ldr	s23, [x2, x24]
  405230:	91004042 	add	x2, x2, #0x10
  405234:	bc7a7898 	ldr	s24, [x4, x26, lsl #2]
  405238:	bc7b6899 	ldr	s25, [x4, x27]
  40523c:	bc78689a 	ldr	s26, [x4, x24]
  405240:	bc7a795b 	ldr	s27, [x10, x26, lsl #2]
  405244:	bc7b695c 	ldr	s28, [x10, x27]
  405248:	bc78695d 	ldr	s29, [x10, x24]
  40524c:	bc7a78e3 	ldr	s3, [x7, x26, lsl #2]
  405250:	bc7b68e1 	ldr	s1, [x7, x27]
  405254:	bc7868e0 	ldr	s0, [x7, x24]
  405258:	2d005414 	stp	s20, s21, [x0]
  40525c:	2d015c16 	stp	s22, s23, [x0, #8]
  405260:	2d02601e 	stp	s30, s24, [x0, #16]
  405264:	2d036819 	stp	s25, s26, [x0, #24]
  405268:	2d046c1f 	stp	s31, s27, [x0, #32]
  40526c:	2d05741c 	stp	s28, s29, [x0, #40]
  405270:	91010000 	add	x0, x0, #0x40
  405274:	bc1f0002 	stur	s2, [x0, #-16]
  405278:	2d008563 	stp	s3, s1, [x11, #4]
  40527c:	bd000d60 	str	s0, [x11, #12]
  405280:	eb15001f 	cmp	x0, x21
  405284:	54fffc41 	b.ne	40520c <_Z9cache_jikILi4ELi16EEviiiiiiPfiS0_iS0_i+0x48c>  // b.any
  405288:	9106c3e1 	add	x1, sp, #0x1b0
  40528c:	52800020 	mov	w0, #0x1                   	// #1
  405290:	97ffed68 	bl	400830 <clock_gettime@plt>
  405294:	11001339 	add	w25, w25, #0x4
  405298:	f940d7ec 	ldr	x12, [sp, #424]
  40529c:	8b1302b5 	add	x21, x21, x19
  4052a0:	f940dfef 	ldr	x15, [sp, #440]
  4052a4:	f940d3e3 	ldr	x3, [sp, #416]
  4052a8:	cb0c01e8 	sub	x8, x15, x12
  4052ac:	f940dbe5 	ldr	x5, [sp, #432]
  4052b0:	9e620104 	scvtf	d4, x8
  4052b4:	f9406fed 	ldr	x13, [sp, #216]
  4052b8:	cb0300a1 	sub	x1, x5, x3
  4052bc:	f94077ee 	ldr	x14, [sp, #232]
  4052c0:	9e620026 	scvtf	d6, x1
  4052c4:	1f481887 	fmadd	d7, d4, d8, d6
  4052c8:	fd4001a5 	ldr	d5, [x13]
  4052cc:	8b0e039c 	add	x28, x28, x14
  4052d0:	1e6728b0 	fadd	d16, d5, d7
  4052d4:	fd0001b0 	str	d16, [x13]
  4052d8:	6b1902ff 	cmp	w23, w25
  4052dc:	54fff3cc 	b.gt	405154 <_Z9cache_jikILi4ELi16EEviiiiiiPfiS0_iS0_i+0x3d4>
  4052e0:	f94053f7 	ldr	x23, [sp, #160]
  4052e4:	b940bbfa 	ldr	w26, [sp, #184]
  4052e8:	b940e7f4 	ldr	w20, [sp, #228]
  4052ec:	b9419bf8 	ldr	w24, [sp, #408]
  4052f0:	b9419ffb 	ldr	w27, [sp, #412]
  4052f4:	910683e1 	add	x1, sp, #0x1a0
  4052f8:	52800020 	mov	w0, #0x1                   	// #1
  4052fc:	97ffed4d 	bl	400830 <clock_gettime@plt>
  405300:	7100035f 	cmp	w26, #0x0
  405304:	5400108d 	b.le	405514 <_Z9cache_jikILi4ELi16EEviiiiiiPfiS0_iS0_i+0x794>
  405308:	f9407bf1 	ldr	x17, [sp, #240]
  40530c:	510006d3 	sub	w19, w22, #0x1
  405310:	f9408ffe 	ldr	x30, [sp, #280]
  405314:	91000670 	add	x16, x19, #0x1
  405318:	f940b3f5 	ldr	x21, [sp, #352]
  40531c:	937a7eca 	sbfiz	x10, x22, #6, #32
  405320:	aa1703e3 	mov	x3, x23
  405324:	d37ae607 	lsl	x7, x16, #6
  405328:	8b110bc4 	add	x4, x30, x17, lsl #2
  40532c:	d2800005 	mov	x5, #0x0                   	// #0
  405330:	710002df 	cmp	w22, #0x0
  405334:	54000e8d 	b.le	405504 <_Z9cache_jikILi4ELi16EEviiiiiiPfiS0_iS0_i+0x784>
  405338:	d1010149 	sub	x9, x10, #0x40
  40533c:	8b0a0072 	add	x18, x3, x10
  405340:	aa0403f9 	mov	x25, x4
  405344:	aa0303e0 	mov	x0, x3
  405348:	d346fd26 	lsr	x6, x9, #6
  40534c:	910004c2 	add	x2, x6, #0x1
  405350:	f240084b 	ands	x11, x2, #0x7
  405354:	54000720 	b.eq	405438 <_Z9cache_jikILi4ELi16EEviiiiiiPfiS0_iS0_i+0x6b8>  // b.none
  405358:	f100057f 	cmp	x11, #0x1
  40535c:	540005e0 	b.eq	405418 <_Z9cache_jikILi4ELi16EEviiiiiiPfiS0_iS0_i+0x698>  // b.none
  405360:	f100097f 	cmp	x11, #0x2
  405364:	540004e0 	b.eq	405400 <_Z9cache_jikILi4ELi16EEviiiiiiPfiS0_iS0_i+0x680>  // b.none
  405368:	f1000d7f 	cmp	x11, #0x3
  40536c:	540003e0 	b.eq	4053e8 <_Z9cache_jikILi4ELi16EEviiiiiiPfiS0_iS0_i+0x668>  // b.none
  405370:	f100117f 	cmp	x11, #0x4
  405374:	540002e0 	b.eq	4053d0 <_Z9cache_jikILi4ELi16EEviiiiiiPfiS0_iS0_i+0x650>  // b.none
  405378:	f100157f 	cmp	x11, #0x5
  40537c:	540001e0 	b.eq	4053b8 <_Z9cache_jikILi4ELi16EEviiiiiiPfiS0_iS0_i+0x638>  // b.none
  405380:	f100197f 	cmp	x11, #0x6
  405384:	540000e0 	b.eq	4053a0 <_Z9cache_jikILi4ELi16EEviiiiiiPfiS0_iS0_i+0x620>  // b.none
  405388:	ad404891 	ldp	q17, q18, [x4]
  40538c:	91010060 	add	x0, x3, #0x40
  405390:	8b150099 	add	x25, x4, x21
  405394:	ad004871 	stp	q17, q18, [x3]
  405398:	ad415493 	ldp	q19, q21, [x4, #32]
  40539c:	ad015473 	stp	q19, q21, [x3, #32]
  4053a0:	ad405f36 	ldp	q22, q23, [x25]
  4053a4:	ad005c16 	stp	q22, q23, [x0]
  4053a8:	ad416738 	ldp	q24, q25, [x25, #32]
  4053ac:	8b150339 	add	x25, x25, x21
  4053b0:	ad016418 	stp	q24, q25, [x0, #32]
  4053b4:	91010000 	add	x0, x0, #0x40
  4053b8:	ad406f3a 	ldp	q26, q27, [x25]
  4053bc:	ad006c1a 	stp	q26, q27, [x0]
  4053c0:	ad41773c 	ldp	q28, q29, [x25, #32]
  4053c4:	8b150339 	add	x25, x25, x21
  4053c8:	ad01741c 	stp	q28, q29, [x0, #32]
  4053cc:	91010000 	add	x0, x0, #0x40
  4053d0:	ad407b34 	ldp	q20, q30, [x25]
  4053d4:	ad007814 	stp	q20, q30, [x0]
  4053d8:	ad410b3f 	ldp	q31, q2, [x25, #32]
  4053dc:	8b150339 	add	x25, x25, x21
  4053e0:	ad01081f 	stp	q31, q2, [x0, #32]
  4053e4:	91010000 	add	x0, x0, #0x40
  4053e8:	ad400723 	ldp	q3, q1, [x25]
  4053ec:	ad000403 	stp	q3, q1, [x0]
  4053f0:	ad411320 	ldp	q0, q4, [x25, #32]
  4053f4:	8b150339 	add	x25, x25, x21
  4053f8:	ad011000 	stp	q0, q4, [x0, #32]
  4053fc:	91010000 	add	x0, x0, #0x40
  405400:	ad401b25 	ldp	q5, q6, [x25]
  405404:	ad001805 	stp	q5, q6, [x0]
  405408:	ad414327 	ldp	q7, q16, [x25, #32]
  40540c:	8b150339 	add	x25, x25, x21
  405410:	ad014007 	stp	q7, q16, [x0, #32]
  405414:	91010000 	add	x0, x0, #0x40
  405418:	ad404b31 	ldp	q17, q18, [x25]
  40541c:	ad004811 	stp	q17, q18, [x0]
  405420:	ad415733 	ldp	q19, q21, [x25, #32]
  405424:	8b150339 	add	x25, x25, x21
  405428:	ad015413 	stp	q19, q21, [x0, #32]
  40542c:	91010000 	add	x0, x0, #0x40
  405430:	eb00025f 	cmp	x18, x0
  405434:	54000660 	b.eq	405500 <_Z9cache_jikILi4ELi16EEviiiiiiPfiS0_iS0_i+0x780>  // b.none
  405438:	ad405f36 	ldp	q22, q23, [x25]
  40543c:	8b15032e 	add	x14, x25, x21
  405440:	9101000c 	add	x12, x0, #0x40
  405444:	8b1501cd 	add	x13, x14, x21
  405448:	9102001c 	add	x28, x0, #0x80
  40544c:	8b1501a8 	add	x8, x13, x21
  405450:	ad005c16 	stp	q22, q23, [x0]
  405454:	9103000f 	add	x15, x0, #0xc0
  405458:	8b150113 	add	x19, x8, x21
  40545c:	ad416738 	ldp	q24, q25, [x25, #32]
  405460:	91040011 	add	x17, x0, #0x100
  405464:	8b150261 	add	x1, x19, x21
  405468:	91050010 	add	x16, x0, #0x140
  40546c:	8b15003e 	add	x30, x1, x21
  405470:	91060009 	add	x9, x0, #0x180
  405474:	ad016418 	stp	q24, q25, [x0, #32]
  405478:	8b1503c6 	add	x6, x30, x21
  40547c:	91070002 	add	x2, x0, #0x1c0
  405480:	ad406dda 	ldp	q26, q27, [x14]
  405484:	91080000 	add	x0, x0, #0x200
  405488:	8b1500d9 	add	x25, x6, x21
  40548c:	ad006d9a 	stp	q26, q27, [x12]
  405490:	ad4175dc 	ldp	q28, q29, [x14, #32]
  405494:	ad01759c 	stp	q28, q29, [x12, #32]
  405498:	ad4079b4 	ldp	q20, q30, [x13]
  40549c:	ad007b94 	stp	q20, q30, [x28]
  4054a0:	ad4109bf 	ldp	q31, q2, [x13, #32]
  4054a4:	ad010b9f 	stp	q31, q2, [x28, #32]
  4054a8:	ad400503 	ldp	q3, q1, [x8]
  4054ac:	ad0005e3 	stp	q3, q1, [x15]
  4054b0:	ad411100 	ldp	q0, q4, [x8, #32]
  4054b4:	ad0111e0 	stp	q0, q4, [x15, #32]
  4054b8:	ad401a65 	ldp	q5, q6, [x19]
  4054bc:	ad001a25 	stp	q5, q6, [x17]
  4054c0:	ad414267 	ldp	q7, q16, [x19, #32]
  4054c4:	ad014227 	stp	q7, q16, [x17, #32]
  4054c8:	ad404831 	ldp	q17, q18, [x1]
  4054cc:	ad004a11 	stp	q17, q18, [x16]
  4054d0:	ad415433 	ldp	q19, q21, [x1, #32]
  4054d4:	ad015613 	stp	q19, q21, [x16, #32]
  4054d8:	ad405fd6 	ldp	q22, q23, [x30]
  4054dc:	ad005d36 	stp	q22, q23, [x9]
  4054e0:	ad4167d8 	ldp	q24, q25, [x30, #32]
  4054e4:	ad016538 	stp	q24, q25, [x9, #32]
  4054e8:	ad406cda 	ldp	q26, q27, [x6]
  4054ec:	ad006c5a 	stp	q26, q27, [x2]
  4054f0:	ad4174dc 	ldp	q28, q29, [x6, #32]
  4054f4:	ad01745c 	stp	q28, q29, [x2, #32]
  4054f8:	eb00025f 	cmp	x18, x0
  4054fc:	54fff9e1 	b.ne	405438 <_Z9cache_jikILi4ELi16EEviiiiiiPfiS0_iS0_i+0x6b8>  // b.any
  405500:	8b070063 	add	x3, x3, x7
  405504:	910040a5 	add	x5, x5, #0x10
  405508:	91010084 	add	x4, x4, #0x40
  40550c:	6b05035f 	cmp	w26, w5
  405510:	54fff10c 	b.gt	405330 <_Z9cache_jikILi4ELi16EEviiiiiiPfiS0_iS0_i+0x5b0>
  405514:	9106c3e1 	add	x1, sp, #0x1b0
  405518:	52800020 	mov	w0, #0x1                   	// #1
  40551c:	97ffecc5 	bl	400830 <clock_gettime@plt>
  405520:	a95a67eb 	ldp	x11, x25, [sp, #416]
  405524:	f940dfe0 	ldr	x0, [sp, #440]
  405528:	f940dbea 	ldr	x10, [sp, #432]
  40552c:	cb190007 	sub	x7, x0, x25
  405530:	b940afee 	ldr	w14, [sp, #172]
  405534:	cb0b0155 	sub	x21, x10, x11
  405538:	9e6200f4 	scvtf	d20, x7
  40553c:	9e6202bf 	scvtf	d31, x21
  405540:	f9406ff2 	ldr	x18, [sp, #216]
  405544:	1f487e82 	fmadd	d2, d20, d8, d31
  405548:	fd40025e 	ldr	d30, [x18]
  40554c:	1e622bc3 	fadd	d3, d30, d2
  405550:	fd000243 	str	d3, [x18]
  405554:	710001df 	cmp	w14, #0x0
  405558:	540013ed 	b.le	4057d4 <_Z9cache_jikILi4ELi16EEviiiiiiPfiS0_iS0_i+0xa54>
  40555c:	2a1803f5 	mov	w21, w24
  405560:	531e76cc 	lsl	w12, w22, #2
  405564:	52800019 	mov	w25, #0x0                   	// #0
  405568:	b900a3ff 	str	wzr, [sp, #160]
  40556c:	b900e7ec 	str	w12, [sp, #228]
  405570:	b9019bf4 	str	w20, [sp, #408]
  405574:	b9019ff8 	str	w24, [sp, #412]
  405578:	7100035f 	cmp	w26, #0x0
  40557c:	5400116d 	b.le	4057a8 <_Z9cache_jikILi4ELi16EEviiiiiiPfiS0_iS0_i+0xa28>
  405580:	f9405bf4 	ldr	x20, [sp, #176]
  405584:	5100074d 	sub	w13, w26, #0x1
  405588:	f94063f8 	ldr	x24, [sp, #192]
  40558c:	d34411b1 	ubfx	x17, x13, #4, #1
  405590:	f9406bf3 	ldr	x19, [sp, #208]
  405594:	f000014f 	adrp	x15, 430000 <puts@GLIBC_2.17>
  405598:	b940a3e8 	ldr	w8, [sp, #160]
  40559c:	8b35c29c 	add	x28, x20, w21, sxtw
  4055a0:	910683e1 	add	x1, sp, #0x1a0
  4055a4:	52800020 	mov	w0, #0x1                   	// #1
  4055a8:	8b1c0a73 	add	x19, x19, x28, lsl #2
  4055ac:	f9005ff1 	str	x17, [sp, #184]
  4055b0:	8b28cb14 	add	x20, x24, w8, sxtw #2
  4055b4:	910201f8 	add	x24, x15, #0x80
  4055b8:	97ffec9e 	bl	400830 <clock_gettime@plt>
  4055bc:	5280021c 	mov	w28, #0x10                  	// #16
  4055c0:	aa1303e6 	mov	x6, x19
  4055c4:	aa1703e5 	mov	x5, x23
  4055c8:	aa1403e4 	mov	x4, x20
  4055cc:	2a1603e3 	mov	w3, w22
  4055d0:	2a1b03e7 	mov	w7, w27
  4055d4:	52800002 	mov	w2, #0x0                   	// #0
  4055d8:	52800201 	mov	w1, #0x10                  	// #16
  4055dc:	52800080 	mov	w0, #0x4                   	// #4
  4055e0:	94005bec 	bl	41c590 <_Z14register_blockiiiiPKfS0_Pfi>
  4055e4:	91010273 	add	x19, x19, #0x40
  4055e8:	9106c3e1 	add	x1, sp, #0x1b0
  4055ec:	52800020 	mov	w0, #0x1                   	// #1
  4055f0:	97ffec90 	bl	400830 <clock_gettime@plt>
  4055f4:	a95a1be9 	ldp	x9, x6, [sp, #416]
  4055f8:	f0000141 	adrp	x1, 430000 <puts@GLIBC_2.17>
  4055fc:	a95b0fe2 	ldp	x2, x3, [sp, #432]
  405600:	f0000152 	adrp	x18, 430000 <puts@GLIBC_2.17>
  405604:	fd404024 	ldr	d4, [x1, #128]
  405608:	cb060064 	sub	x4, x3, x6
  40560c:	cb090045 	sub	x5, x2, x9
  405610:	9e620081 	scvtf	d1, x4
  405614:	9e6200a0 	scvtf	d0, x5
  405618:	1f480025 	fmadd	d5, d1, d8, d0
  40561c:	1e652886 	fadd	d6, d4, d5
  405620:	fd004246 	str	d6, [x18, #128]
  405624:	6b1c035f 	cmp	w26, w28
  405628:	54000c0d 	b.le	4057a8 <_Z9cache_jikILi4ELi16EEviiiiiiPfiS0_iS0_i+0xa28>
  40562c:	b940bbf0 	ldr	w16, [sp, #184]
  405630:	34000410 	cbz	w16, 4056b0 <_Z9cache_jikILi4ELi16EEviiiiiiPfiS0_iS0_i+0x930>
  405634:	910683e1 	add	x1, sp, #0x1a0
  405638:	52800020 	mov	w0, #0x1                   	// #1
  40563c:	97ffec7d 	bl	400830 <clock_gettime@plt>
  405640:	531c6ecb 	lsl	w11, w22, #4
  405644:	2a1b03e7 	mov	w7, w27
  405648:	aa1303e6 	mov	x6, x19
  40564c:	aa1403e4 	mov	x4, x20
  405650:	8b2bcae5 	add	x5, x23, w11, sxtw #2
  405654:	2a1603e3 	mov	w3, w22
  405658:	52800002 	mov	w2, #0x0                   	// #0
  40565c:	2a1c03e1 	mov	w1, w28
  405660:	52800080 	mov	w0, #0x4                   	// #4
  405664:	94005bcb 	bl	41c590 <_Z14register_blockiiiiPKfS0_Pfi>
  405668:	9106c3e1 	add	x1, sp, #0x1b0
  40566c:	52800020 	mov	w0, #0x1                   	// #1
  405670:	97ffec70 	bl	400830 <clock_gettime@plt>
  405674:	91010273 	add	x19, x19, #0x40
  405678:	a95a2be7 	ldp	x7, x10, [sp, #416]
  40567c:	f000014d 	adrp	x13, 430000 <puts@GLIBC_2.17>
  405680:	a95b03ee 	ldp	x14, x0, [sp, #432]
  405684:	5280041c 	mov	w28, #0x20                  	// #32
  405688:	fd4041a7 	ldr	d7, [x13, #128]
  40568c:	cb0a0008 	sub	x8, x0, x10
  405690:	cb0701cc 	sub	x12, x14, x7
  405694:	9e620111 	scvtf	d17, x8
  405698:	9e620190 	scvtf	d16, x12
  40569c:	1f484232 	fmadd	d18, d17, d8, d16
  4056a0:	1e7228f3 	fadd	d19, d7, d18
  4056a4:	fd0041b3 	str	d19, [x13, #128]
  4056a8:	6b1c035f 	cmp	w26, w28
  4056ac:	540007ed 	b.le	4057a8 <_Z9cache_jikILi4ELi16EEviiiiiiPfiS0_iS0_i+0xa28>
  4056b0:	910683e1 	add	x1, sp, #0x1a0
  4056b4:	52800020 	mov	w0, #0x1                   	// #1
  4056b8:	97ffec5e 	bl	400830 <clock_gettime@plt>
  4056bc:	13047f81 	asr	w1, w28, #4
  4056c0:	2a1b03e7 	mov	w7, w27
  4056c4:	aa1303e6 	mov	x6, x19
  4056c8:	aa1403e4 	mov	x4, x20
  4056cc:	2a1603e3 	mov	w3, w22
  4056d0:	52800002 	mov	w2, #0x0                   	// #0
  4056d4:	1b167c29 	mul	w9, w1, w22
  4056d8:	52800080 	mov	w0, #0x4                   	// #4
  4056dc:	52800201 	mov	w1, #0x10                  	// #16
  4056e0:	1100439c 	add	w28, w28, #0x10
  4056e4:	91010273 	add	x19, x19, #0x40
  4056e8:	531c6d25 	lsl	w5, w9, #4
  4056ec:	8b25cae5 	add	x5, x23, w5, sxtw #2
  4056f0:	94005ba8 	bl	41c590 <_Z14register_blockiiiiPKfS0_Pfi>
  4056f4:	9106c3e1 	add	x1, sp, #0x1b0
  4056f8:	52800020 	mov	w0, #0x1                   	// #1
  4056fc:	97ffec4d 	bl	400830 <clock_gettime@plt>
  405700:	a95a13e6 	ldp	x6, x4, [sp, #416]
  405704:	910683e1 	add	x1, sp, #0x1a0
  405708:	a95b0be3 	ldp	x3, x2, [sp, #432]
  40570c:	52800020 	mov	w0, #0x1                   	// #1
  405710:	fd400315 	ldr	d21, [x24]
  405714:	cb04004b 	sub	x11, x2, x4
  405718:	cb060072 	sub	x18, x3, x6
  40571c:	9e620177 	scvtf	d23, x11
  405720:	9e620256 	scvtf	d22, x18
  405724:	1f485af8 	fmadd	d24, d23, d8, d22
  405728:	1e782ab9 	fadd	d25, d21, d24
  40572c:	fd000319 	str	d25, [x24]
  405730:	97ffec40 	bl	400830 <clock_gettime@plt>
  405734:	13047f8a 	asr	w10, w28, #4
  405738:	2a1b03e7 	mov	w7, w27
  40573c:	aa1303e6 	mov	x6, x19
  405740:	aa1403e4 	mov	x4, x20
  405744:	2a1603e3 	mov	w3, w22
  405748:	52800002 	mov	w2, #0x0                   	// #0
  40574c:	1b167d4e 	mul	w14, w10, w22
  405750:	52800201 	mov	w1, #0x10                  	// #16
  405754:	52800080 	mov	w0, #0x4                   	// #4
  405758:	1100439c 	add	w28, w28, #0x10
  40575c:	91010273 	add	x19, x19, #0x40
  405760:	531c6dcc 	lsl	w12, w14, #4
  405764:	8b2ccae5 	add	x5, x23, w12, sxtw #2
  405768:	94005b8a 	bl	41c590 <_Z14register_blockiiiiPKfS0_Pfi>
  40576c:	9106c3e1 	add	x1, sp, #0x1b0
  405770:	52800020 	mov	w0, #0x1                   	// #1
  405774:	97ffec2f 	bl	400830 <clock_gettime@plt>
  405778:	a95a37e7 	ldp	x7, x13, [sp, #416]
  40577c:	a95b03e8 	ldp	x8, x0, [sp, #432]
  405780:	fd40031a 	ldr	d26, [x24]
  405784:	cb0d0001 	sub	x1, x0, x13
  405788:	cb07010f 	sub	x15, x8, x7
  40578c:	9e62003c 	scvtf	d28, x1
  405790:	9e6201fb 	scvtf	d27, x15
  405794:	1f486f9d 	fmadd	d29, d28, d8, d27
  405798:	1e7d2b54 	fadd	d20, d26, d29
  40579c:	fd000314 	str	d20, [x24]
  4057a0:	6b1c035f 	cmp	w26, w28
  4057a4:	54fff86c 	b.gt	4056b0 <_Z9cache_jikILi4ELi16EEviiiiiiPfiS0_iS0_i+0x930>
  4057a8:	295c53fe 	ldp	w30, w20, [sp, #224]
  4057ac:	11001339 	add	w25, w25, #0x4
  4057b0:	b940a3f8 	ldr	w24, [sp, #160]
  4057b4:	b940aff0 	ldr	w16, [sp, #172]
  4057b8:	0b1e02b5 	add	w21, w21, w30
  4057bc:	0b140311 	add	w17, w24, w20
  4057c0:	b900a3f1 	str	w17, [sp, #160]
  4057c4:	6b10033f 	cmp	w25, w16
  4057c8:	54ffed8b 	b.lt	405578 <_Z9cache_jikILi4ELi16EEviiiiiiPfiS0_iS0_i+0x7f8>  // b.tstop
  4057cc:	b9419bf4 	ldr	w20, [sp, #408]
  4057d0:	b9419ff8 	ldr	w24, [sp, #412]
  4057d4:	f94067e9 	ldr	x9, [sp, #200]
  4057d8:	2a1603e5 	mov	w5, w22
  4057dc:	f9406beb 	ldr	x11, [sp, #208]
  4057e0:	f90003e9 	str	x9, [sp]
  4057e4:	b940afe6 	ldr	w6, [sp, #172]
  4057e8:	2a1a03e7 	mov	w7, w26
  4057ec:	b9414be4 	ldr	w4, [sp, #328]
  4057f0:	2a1403e0 	mov	w0, w20
  4057f4:	b9418be3 	ldr	w3, [sp, #392]
  4057f8:	b9416bf2 	ldr	w18, [sp, #360]
  4057fc:	b94107e1 	ldr	w1, [sp, #260]
  405800:	f9408ff3 	ldr	x19, [sp, #280]
  405804:	f9000bf3 	str	x19, [sp, #16]
  405808:	b9416ffc 	ldr	w28, [sp, #364]
  40580c:	b9410ff6 	ldr	w22, [sp, #268]
  405810:	b9000bfc 	str	w28, [sp, #8]
  405814:	b9001bf2 	str	w18, [sp, #24]
  405818:	2a1603e2 	mov	w2, w22
  40581c:	f90013eb 	str	x11, [sp, #32]
  405820:	b9002bfb 	str	w27, [sp, #40]
  405824:	97fff1cb 	bl	401f50 <_Z10tail_blockILi4ELi16EEviiiiiiiiPfiS0_iS0_i>
  405828:	f9407bee 	ldr	x14, [sp, #240]
  40582c:	f9407fed 	ldr	x13, [sp, #248]
  405830:	f9409fe2 	ldr	x2, [sp, #312]
  405834:	f940a3e7 	ldr	x7, [sp, #320]
  405838:	8b0201cc 	add	x12, x14, x2
  40583c:	b94103e6 	ldr	w6, [sp, #256]
  405840:	b9410be4 	ldr	w4, [sp, #264]
  405844:	8b0701a8 	add	x8, x13, x7
  405848:	b94113e0 	ldr	w0, [sp, #272]
  40584c:	0b0402c3 	add	w3, w22, w4
  405850:	4b0400ca 	sub	w10, w6, w4
  405854:	f9007bec 	str	x12, [sp, #240]
  405858:	f9007fe8 	str	x8, [sp, #248]
  40585c:	b90103ea 	str	w10, [sp, #256]
  405860:	b9010fe3 	str	w3, [sp, #268]
  405864:	6b03001f 	cmp	w0, w3
  405868:	54ffc44c 	b.gt	4050f0 <_Z9cache_jikILi4ELi16EEviiiiiiPfiS0_iS0_i+0x370>
  40586c:	b94187ef 	ldr	w15, [sp, #388]
  405870:	2a1803f3 	mov	w19, w24
  405874:	b9418ff6 	ldr	w22, [sp, #396]
  405878:	b94193f1 	ldr	w17, [sp, #400]
  40587c:	b94197f0 	ldr	w16, [sp, #404]
  405880:	b9414fe1 	ldr	w1, [sp, #332]
  405884:	0b100294 	add	w20, w20, w16
  405888:	b9415bf9 	ldr	w25, [sp, #344]
  40588c:	4b1002d6 	sub	w22, w22, w16
  405890:	0b010273 	add	w19, w19, w1
  405894:	0b190231 	add	w17, w17, w25
  405898:	6b1401ff 	cmp	w15, w20
  40589c:	54ffbf4c 	b.gt	405084 <_Z9cache_jikILi4ELi16EEviiiiiiPfiS0_iS0_i+0x304>
  4058a0:	f940bff5 	ldr	x21, [sp, #376]
  4058a4:	2a1003fa 	mov	w26, w16
  4058a8:	b94177f6 	ldr	w22, [sp, #372]
  4058ac:	b94183f9 	ldr	w25, [sp, #384]
  4058b0:	f9405be9 	ldr	x9, [sp, #176]
  4058b4:	f940abfc 	ldr	x28, [sp, #336]
  4058b8:	b94107fb 	ldr	w27, [sp, #260]
  4058bc:	b94117fe 	ldr	w30, [sp, #276]
  4058c0:	8b1c0132 	add	x18, x9, x28
  4058c4:	b9415feb 	ldr	w11, [sp, #348]
  4058c8:	0b1e0378 	add	w24, w27, w30
  4058cc:	f9005bf2 	str	x18, [sp, #176]
  4058d0:	b90107f8 	str	w24, [sp, #260]
  4058d4:	4b1e02d6 	sub	w22, w22, w30
  4058d8:	6b18017f 	cmp	w11, w24
  4058dc:	54ffae2c 	b.gt	404ea0 <_Z9cache_jikILi4ELi16EEviiiiiiPfiS0_iS0_i+0x120>
  4058e0:	fd404be8 	ldr	d8, [sp, #144]
  4058e4:	f94063e0 	ldr	x0, [sp, #192]
  4058e8:	97ffebbe 	bl	4007e0 <free@plt>
  4058ec:	a9437bfd 	ldp	x29, x30, [sp, #48]
  4058f0:	aa1703e0 	mov	x0, x23
  4058f4:	a94453f3 	ldp	x19, x20, [sp, #64]
  4058f8:	a9455bf5 	ldp	x21, x22, [sp, #80]
  4058fc:	a94663f7 	ldp	x23, x24, [sp, #96]
  405900:	a9476bf9 	ldp	x25, x26, [sp, #112]
  405904:	a94873fb 	ldp	x27, x28, [sp, #128]
  405908:	910703ff 	add	sp, sp, #0x1c0
  40590c:	17ffebb5 	b	4007e0 <free@plt>

0000000000405910 <_Z9cache_jkiILi4ELi16EEviiiiiiPfiS0_iS0_i>:
  405910:	d10783ff 	sub	sp, sp, #0x1e0
  405914:	2a0303eb 	mov	w11, w3
  405918:	1b037ca3 	mul	w3, w5, w3
  40591c:	a9037bfd 	stp	x29, x30, [sp, #48]
  405920:	9100c3fd 	add	x29, sp, #0x30
  405924:	a9076bf9 	stp	x25, x26, [sp, #112]
  405928:	2a0503fa 	mov	w26, w5
  40592c:	f940f3e5 	ldr	x5, [sp, #480]
  405930:	a9055bf5 	stp	x21, x22, [sp, #80]
  405934:	2a0403f6 	mov	w22, w4
  405938:	b90103e0 	str	w0, [sp, #256]
  40593c:	f940fbe0 	ldr	x0, [sp, #496]
  405940:	a90453f3 	stp	x19, x20, [sp, #64]
  405944:	b941ebf3 	ldr	w19, [sp, #488]
  405948:	2a0103f4 	mov	w20, w1
  40594c:	a90663f7 	stp	x23, x24, [sp, #96]
  405950:	b941fbf8 	ldr	w24, [sp, #504]
  405954:	a90873fb 	stp	x27, x28, [sp, #128]
  405958:	b900abe7 	str	w7, [sp, #168]
  40595c:	b900b3eb 	str	w11, [sp, #176]
  405960:	f90063e0 	str	x0, [sp, #192]
  405964:	d2800800 	mov	x0, #0x40                  	// #64
  405968:	f9008fe5 	str	x5, [sp, #280]
  40596c:	b9014bf3 	str	w19, [sp, #328]
  405970:	b9016fe2 	str	w2, [sp, #364]
  405974:	f900c3e6 	str	x6, [sp, #384]
  405978:	b9019be1 	str	w1, [sp, #408]
  40597c:	937e7c61 	sbfiz	x1, x3, #2, #32
  405980:	97ffeb90 	bl	4007c0 <aligned_alloc@plt>
  405984:	f9006be0 	str	x0, [sp, #208]
  405988:	1b1a7ec1 	mul	w1, w22, w26
  40598c:	d2800800 	mov	x0, #0x40                  	// #64
  405990:	937e7c21 	sbfiz	x1, x1, #2, #32
  405994:	97ffeb8b 	bl	4007c0 <aligned_alloc@plt>
  405998:	aa0003fc 	mov	x28, x0
  40599c:	7100029f 	cmp	w20, #0x0
  4059a0:	5400570d 	b.le	406480 <_Z9cache_jkiILi4ELi16EEviiiiiiPfiS0_iS0_i+0xb70>
  4059a4:	b940abec 	ldr	w12, [sp, #168]
  4059a8:	1b1a7e62 	mul	w2, w19, w26
  4059ac:	b940b3ed 	ldr	w13, [sp, #176]
  4059b0:	52800188 	mov	w8, #0xc                   	// #12
  4059b4:	b00000dc 	adrp	x28, 41e000 <_Z21register_block_vv_3x4ILi3ELi16EEviPKfS1_Pfi+0xe0>
  4059b8:	2a1303e6 	mov	w6, w19
  4059bc:	531e7589 	lsl	w9, w12, #2
  4059c0:	531e7719 	lsl	w25, w24, #2
  4059c4:	93407f5b 	sxtw	x27, w26
  4059c8:	9b287d8a 	smull	x10, w12, w8
  4059cc:	1b187da4 	mul	w4, w13, w24
  4059d0:	937e7f15 	sbfiz	x21, x24, #2, #32
  4059d4:	1b0c7db1 	mul	w17, w13, w12
  4059d8:	2a1403f3 	mov	w19, w20
  4059dc:	fd004be8 	str	d8, [sp, #144]
  4059e0:	93407c47 	sxtw	x7, w2
  4059e4:	fd41eb88 	ldr	d8, [x28, #976]
  4059e8:	93407d2e 	sxtw	x14, w9
  4059ec:	b9019ff8 	str	w24, [sp, #412]
  4059f0:	2a1a03f8 	mov	w24, w26
  4059f4:	aa0003fa 	mov	x26, x0
  4059f8:	93407d8f 	sxtw	x15, w12
  4059fc:	937d7d90 	sbfiz	x16, x12, #3, #32
  405a00:	93407ed2 	sxtw	x18, w22
  405a04:	937e7cd7 	sbfiz	x23, x6, #2, #32
  405a08:	f9005fff 	str	xzr, [sp, #184]
  405a0c:	b900dff9 	str	w25, [sp, #220]
  405a10:	f90073ee 	str	x14, [sp, #224]
  405a14:	b9010bed 	str	w13, [sp, #264]
  405a18:	b90123ff 	str	wzr, [sp, #288]
  405a1c:	b9012be4 	str	w4, [sp, #296]
  405a20:	b9012ff1 	str	w17, [sp, #300]
  405a24:	a91343ea 	stp	x10, x16, [sp, #304]
  405a28:	f900a3ef 	str	x15, [sp, #320]
  405a2c:	b9014fec 	str	w12, [sp, #332]
  405a30:	f900bbe7 	str	x7, [sp, #368]
  405a34:	f900bff2 	str	x18, [sp, #376]
  405a38:	f900c7fb 	str	x27, [sp, #392]
  405a3c:	f900cbf7 	str	x23, [sp, #400]
  405a40:	6b16027f 	cmp	w19, w22
  405a44:	b94103e0 	ldr	w0, [sp, #256]
  405a48:	1a96d27e 	csel	w30, w19, w22, le
  405a4c:	b90127fe 	str	w30, [sp, #292]
  405a50:	6b1e03eb 	negs	w11, w30
  405a54:	12000fc3 	and	w3, w30, #0xf
  405a58:	12000d74 	and	w20, w11, #0xf
  405a5c:	5a944465 	csneg	w5, w3, w20, mi  // mi = first
  405a60:	4b0503d9 	sub	w25, w30, w5
  405a64:	7100001f 	cmp	w0, #0x0
  405a68:	54000ced 	b.le	405c04 <_Z9cache_jkiILi4ELi16EEviiiiiiPfiS0_iS0_i+0x2f4>
  405a6c:	a94b8be1 	ldp	x1, x2, [sp, #184]
  405a70:	937e7fd7 	sbfiz	x23, x30, #2, #32
  405a74:	72000806 	ands	w6, w0, #0x7
  405a78:	5280001c 	mov	w28, #0x0                   	// #0
  405a7c:	8b01084e 	add	x14, x2, x1, lsl #2
  405a80:	54000740 	b.eq	405b68 <_Z9cache_jkiILi4ELi16EEviiiiiiPfiS0_iS0_i+0x258>  // b.none
  405a84:	710004df 	cmp	w6, #0x1
  405a88:	540005e0 	b.eq	405b44 <_Z9cache_jkiILi4ELi16EEviiiiiiPfiS0_iS0_i+0x234>  // b.none
  405a8c:	710008df 	cmp	w6, #0x2
  405a90:	540004e0 	b.eq	405b2c <_Z9cache_jkiILi4ELi16EEviiiiiiPfiS0_iS0_i+0x21c>  // b.none
  405a94:	71000cdf 	cmp	w6, #0x3
  405a98:	540003e0 	b.eq	405b14 <_Z9cache_jkiILi4ELi16EEviiiiiiPfiS0_iS0_i+0x204>  // b.none
  405a9c:	710010df 	cmp	w6, #0x4
  405aa0:	540002e0 	b.eq	405afc <_Z9cache_jkiILi4ELi16EEviiiiiiPfiS0_iS0_i+0x1ec>  // b.none
  405aa4:	710014df 	cmp	w6, #0x5
  405aa8:	540001e0 	b.eq	405ae4 <_Z9cache_jkiILi4ELi16EEviiiiiiPfiS0_iS0_i+0x1d4>  // b.none
  405aac:	710018df 	cmp	w6, #0x6
  405ab0:	540000e0 	b.eq	405acc <_Z9cache_jkiILi4ELi16EEviiiiiiPfiS0_iS0_i+0x1bc>  // b.none
  405ab4:	aa0e03e0 	mov	x0, x14
  405ab8:	aa1703e2 	mov	x2, x23
  405abc:	52800001 	mov	w1, #0x0                   	// #0
  405ac0:	97ffeb50 	bl	400800 <memset@plt>
  405ac4:	8b15000e 	add	x14, x0, x21
  405ac8:	5280003c 	mov	w28, #0x1                   	// #1
  405acc:	aa0e03e0 	mov	x0, x14
  405ad0:	aa1703e2 	mov	x2, x23
  405ad4:	52800001 	mov	w1, #0x0                   	// #0
  405ad8:	1100079c 	add	w28, w28, #0x1
  405adc:	97ffeb49 	bl	400800 <memset@plt>
  405ae0:	8b15000e 	add	x14, x0, x21
  405ae4:	aa0e03e0 	mov	x0, x14
  405ae8:	aa1703e2 	mov	x2, x23
  405aec:	52800001 	mov	w1, #0x0                   	// #0
  405af0:	1100079c 	add	w28, w28, #0x1
  405af4:	97ffeb43 	bl	400800 <memset@plt>
  405af8:	8b15000e 	add	x14, x0, x21
  405afc:	aa0e03e0 	mov	x0, x14
  405b00:	aa1703e2 	mov	x2, x23
  405b04:	52800001 	mov	w1, #0x0                   	// #0
  405b08:	1100079c 	add	w28, w28, #0x1
  405b0c:	97ffeb3d 	bl	400800 <memset@plt>
  405b10:	8b15000e 	add	x14, x0, x21
  405b14:	aa0e03e0 	mov	x0, x14
  405b18:	aa1703e2 	mov	x2, x23
  405b1c:	52800001 	mov	w1, #0x0                   	// #0
  405b20:	1100079c 	add	w28, w28, #0x1
  405b24:	97ffeb37 	bl	400800 <memset@plt>
  405b28:	8b15000e 	add	x14, x0, x21
  405b2c:	aa0e03e0 	mov	x0, x14
  405b30:	aa1703e2 	mov	x2, x23
  405b34:	52800001 	mov	w1, #0x0                   	// #0
  405b38:	1100079c 	add	w28, w28, #0x1
  405b3c:	97ffeb31 	bl	400800 <memset@plt>
  405b40:	8b15000e 	add	x14, x0, x21
  405b44:	aa0e03e0 	mov	x0, x14
  405b48:	aa1703e2 	mov	x2, x23
  405b4c:	52800001 	mov	w1, #0x0                   	// #0
  405b50:	97ffeb2c 	bl	400800 <memset@plt>
  405b54:	b94103ef 	ldr	w15, [sp, #256]
  405b58:	1100079c 	add	w28, w28, #0x1
  405b5c:	8b15000e 	add	x14, x0, x21
  405b60:	6b1c01ff 	cmp	w15, w28
  405b64:	54000500 	b.eq	405c04 <_Z9cache_jkiILi4ELi16EEviiiiiiPfiS0_iS0_i+0x2f4>  // b.none
  405b68:	2a1803fb 	mov	w27, w24
  405b6c:	aa0e03e0 	mov	x0, x14
  405b70:	aa1703e2 	mov	x2, x23
  405b74:	52800001 	mov	w1, #0x0                   	// #0
  405b78:	97ffeb22 	bl	400800 <memset@plt>
  405b7c:	aa1703e2 	mov	x2, x23
  405b80:	52800001 	mov	w1, #0x0                   	// #0
  405b84:	8b150000 	add	x0, x0, x21
  405b88:	97ffeb1e 	bl	400800 <memset@plt>
  405b8c:	aa1703e2 	mov	x2, x23
  405b90:	52800001 	mov	w1, #0x0                   	// #0
  405b94:	8b150000 	add	x0, x0, x21
  405b98:	97ffeb1a 	bl	400800 <memset@plt>
  405b9c:	aa1703e2 	mov	x2, x23
  405ba0:	52800001 	mov	w1, #0x0                   	// #0
  405ba4:	8b150000 	add	x0, x0, x21
  405ba8:	97ffeb16 	bl	400800 <memset@plt>
  405bac:	aa1703e2 	mov	x2, x23
  405bb0:	52800001 	mov	w1, #0x0                   	// #0
  405bb4:	8b150000 	add	x0, x0, x21
  405bb8:	97ffeb12 	bl	400800 <memset@plt>
  405bbc:	aa1703e2 	mov	x2, x23
  405bc0:	52800001 	mov	w1, #0x0                   	// #0
  405bc4:	8b150000 	add	x0, x0, x21
  405bc8:	97ffeb0e 	bl	400800 <memset@plt>
  405bcc:	aa1703e2 	mov	x2, x23
  405bd0:	52800001 	mov	w1, #0x0                   	// #0
  405bd4:	8b150000 	add	x0, x0, x21
  405bd8:	97ffeb0a 	bl	400800 <memset@plt>
  405bdc:	aa1703e2 	mov	x2, x23
  405be0:	8b150000 	add	x0, x0, x21
  405be4:	52800001 	mov	w1, #0x0                   	// #0
  405be8:	97ffeb06 	bl	400800 <memset@plt>
  405bec:	b94103e2 	ldr	w2, [sp, #256]
  405bf0:	1100239c 	add	w28, w28, #0x8
  405bf4:	8b15000e 	add	x14, x0, x21
  405bf8:	6b1c005f 	cmp	w2, w28
  405bfc:	54fffb81 	b.ne	405b6c <_Z9cache_jkiILi4ELi16EEviiiiiiPfiS0_iS0_i+0x25c>  // b.any
  405c00:	2a1b03f8 	mov	w24, w27
  405c04:	b9416ff0 	ldr	w16, [sp, #364]
  405c08:	7100021f 	cmp	w16, #0x0
  405c0c:	5400420d 	b.le	40644c <_Z9cache_jkiILi4ELi16EEviiiiiiPfiS0_iS0_i+0xb3c>
  405c10:	f9405fe0 	ldr	x0, [sp, #184]
  405c14:	2a1003f7 	mov	w23, w16
  405c18:	b9419ffb 	ldr	w27, [sp, #412]
  405c1c:	f0000151 	adrp	x17, 430000 <puts@GLIBC_2.17>
  405c20:	aa0003f4 	mov	x20, x0
  405c24:	f900d3f5 	str	x21, [sp, #416]
  405c28:	2a1603f5 	mov	w21, w22
  405c2c:	9102223e 	add	x30, x17, #0x88
  405c30:	f90067fe 	str	x30, [sp, #200]
  405c34:	b9010fff 	str	wzr, [sp, #268]
  405c38:	f9008bff 	str	xzr, [sp, #272]
  405c3c:	6b1802ff 	cmp	w23, w24
  405c40:	910703e1 	add	x1, sp, #0x1c0
  405c44:	1a98d2f6 	csel	w22, w23, w24, le
  405c48:	52800020 	mov	w0, #0x1                   	// #1
  405c4c:	b900abf8 	str	w24, [sp, #168]
  405c50:	97ffeaf8 	bl	400830 <clock_gettime@plt>
  405c54:	b940abe7 	ldr	w7, [sp, #168]
  405c58:	7100033f 	cmp	w25, #0x0
  405c5c:	5400106d 	b.le	405e68 <_Z9cache_jkiILi4ELi16EEviiiiiiPfiS0_iS0_i+0x558>
  405c60:	f9408fed 	ldr	x13, [sp, #280]
  405c64:	510006c8 	sub	w8, w22, #0x1
  405c68:	9100050c 	add	x12, x8, #0x1
  405c6c:	937a7ece 	sbfiz	x14, x22, #6, #32
  405c70:	f940cbfc 	ldr	x28, [sp, #400]
  405c74:	aa1a03e5 	mov	x5, x26
  405c78:	d37ae59e 	lsl	x30, x12, #6
  405c7c:	8b1409a6 	add	x6, x13, x20, lsl #2
  405c80:	d280000b 	mov	x11, #0x0                   	// #0
  405c84:	710002df 	cmp	w22, #0x0
  405c88:	54000e8d 	b.le	405e58 <_Z9cache_jkiILi4ELi16EEviiiiiiPfiS0_iS0_i+0x548>
  405c8c:	d10101c9 	sub	x9, x14, #0x40
  405c90:	8b0e00a4 	add	x4, x5, x14
  405c94:	aa0603f2 	mov	x18, x6
  405c98:	aa0503f1 	mov	x17, x5
  405c9c:	d346fd2a 	lsr	x10, x9, #6
  405ca0:	9100054f 	add	x15, x10, #0x1
  405ca4:	f24009f8 	ands	x24, x15, #0x7
  405ca8:	54000720 	b.eq	405d8c <_Z9cache_jkiILi4ELi16EEviiiiiiPfiS0_iS0_i+0x47c>  // b.none
  405cac:	f100071f 	cmp	x24, #0x1
  405cb0:	540005e0 	b.eq	405d6c <_Z9cache_jkiILi4ELi16EEviiiiiiPfiS0_iS0_i+0x45c>  // b.none
  405cb4:	f1000b1f 	cmp	x24, #0x2
  405cb8:	540004e0 	b.eq	405d54 <_Z9cache_jkiILi4ELi16EEviiiiiiPfiS0_iS0_i+0x444>  // b.none
  405cbc:	f1000f1f 	cmp	x24, #0x3
  405cc0:	540003e0 	b.eq	405d3c <_Z9cache_jkiILi4ELi16EEviiiiiiPfiS0_iS0_i+0x42c>  // b.none
  405cc4:	f100131f 	cmp	x24, #0x4
  405cc8:	540002e0 	b.eq	405d24 <_Z9cache_jkiILi4ELi16EEviiiiiiPfiS0_iS0_i+0x414>  // b.none
  405ccc:	f100171f 	cmp	x24, #0x5
  405cd0:	540001e0 	b.eq	405d0c <_Z9cache_jkiILi4ELi16EEviiiiiiPfiS0_iS0_i+0x3fc>  // b.none
  405cd4:	f1001b1f 	cmp	x24, #0x6
  405cd8:	540000e0 	b.eq	405cf4 <_Z9cache_jkiILi4ELi16EEviiiiiiPfiS0_iS0_i+0x3e4>  // b.none
  405cdc:	ad4004c0 	ldp	q0, q1, [x6]
  405ce0:	910100b1 	add	x17, x5, #0x40
  405ce4:	8b1c00d2 	add	x18, x6, x28
  405ce8:	ad0004a0 	stp	q0, q1, [x5]
  405cec:	ad410cc2 	ldp	q2, q3, [x6, #32]
  405cf0:	ad010ca2 	stp	q2, q3, [x5, #32]
  405cf4:	ad401644 	ldp	q4, q5, [x18]
  405cf8:	ad001624 	stp	q4, q5, [x17]
  405cfc:	ad411e46 	ldp	q6, q7, [x18, #32]
  405d00:	8b1c0252 	add	x18, x18, x28
  405d04:	ad011e26 	stp	q6, q7, [x17, #32]
  405d08:	91010231 	add	x17, x17, #0x40
  405d0c:	ad404650 	ldp	q16, q17, [x18]
  405d10:	ad004630 	stp	q16, q17, [x17]
  405d14:	ad414e52 	ldp	q18, q19, [x18, #32]
  405d18:	8b1c0252 	add	x18, x18, x28
  405d1c:	ad014e32 	stp	q18, q19, [x17, #32]
  405d20:	91010231 	add	x17, x17, #0x40
  405d24:	ad405654 	ldp	q20, q21, [x18]
  405d28:	ad005634 	stp	q20, q21, [x17]
  405d2c:	ad415e56 	ldp	q22, q23, [x18, #32]
  405d30:	8b1c0252 	add	x18, x18, x28
  405d34:	ad015e36 	stp	q22, q23, [x17, #32]
  405d38:	91010231 	add	x17, x17, #0x40
  405d3c:	ad406658 	ldp	q24, q25, [x18]
  405d40:	ad006638 	stp	q24, q25, [x17]
  405d44:	ad416e5a 	ldp	q26, q27, [x18, #32]
  405d48:	8b1c0252 	add	x18, x18, x28
  405d4c:	ad016e3a 	stp	q26, q27, [x17, #32]
  405d50:	91010231 	add	x17, x17, #0x40
  405d54:	ad40765c 	ldp	q28, q29, [x18]
  405d58:	ad00763c 	stp	q28, q29, [x17]
  405d5c:	ad417e5e 	ldp	q30, q31, [x18, #32]
  405d60:	8b1c0252 	add	x18, x18, x28
  405d64:	ad017e3e 	stp	q30, q31, [x17, #32]
  405d68:	91010231 	add	x17, x17, #0x40
  405d6c:	ad400640 	ldp	q0, q1, [x18]
  405d70:	ad000620 	stp	q0, q1, [x17]
  405d74:	ad410e42 	ldp	q2, q3, [x18, #32]
  405d78:	8b1c0252 	add	x18, x18, x28
  405d7c:	ad010e22 	stp	q2, q3, [x17, #32]
  405d80:	91010231 	add	x17, x17, #0x40
  405d84:	eb04023f 	cmp	x17, x4
  405d88:	54000660 	b.eq	405e54 <_Z9cache_jkiILi4ELi16EEviiiiiiPfiS0_iS0_i+0x544>  // b.none
  405d8c:	ad401644 	ldp	q4, q5, [x18]
  405d90:	8b1c0250 	add	x16, x18, x28
  405d94:	91010222 	add	x2, x17, #0x40
  405d98:	8b1c0200 	add	x0, x16, x28
  405d9c:	91020221 	add	x1, x17, #0x80
  405da0:	8b1c0003 	add	x3, x0, x28
  405da4:	ad001624 	stp	q4, q5, [x17]
  405da8:	91030228 	add	x8, x17, #0xc0
  405dac:	8b1c006c 	add	x12, x3, x28
  405db0:	ad411e46 	ldp	q6, q7, [x18, #32]
  405db4:	9104022d 	add	x13, x17, #0x100
  405db8:	8b1c0189 	add	x9, x12, x28
  405dbc:	9105022a 	add	x10, x17, #0x140
  405dc0:	8b1c0138 	add	x24, x9, x28
  405dc4:	9106022f 	add	x15, x17, #0x180
  405dc8:	ad011e26 	stp	q6, q7, [x17, #32]
  405dcc:	ad404610 	ldp	q16, q17, [x16]
  405dd0:	ad004450 	stp	q16, q17, [x2]
  405dd4:	ad414e12 	ldp	q18, q19, [x16, #32]
  405dd8:	8b1c0310 	add	x16, x24, x28
  405ddc:	8b1c0212 	add	x18, x16, x28
  405de0:	ad014c52 	stp	q18, q19, [x2, #32]
  405de4:	91070222 	add	x2, x17, #0x1c0
  405de8:	91080231 	add	x17, x17, #0x200
  405dec:	ad405414 	ldp	q20, q21, [x0]
  405df0:	ad005434 	stp	q20, q21, [x1]
  405df4:	ad415c16 	ldp	q22, q23, [x0, #32]
  405df8:	ad015c36 	stp	q22, q23, [x1, #32]
  405dfc:	ad406478 	ldp	q24, q25, [x3]
  405e00:	ad006518 	stp	q24, q25, [x8]
  405e04:	ad416c7a 	ldp	q26, q27, [x3, #32]
  405e08:	ad016d1a 	stp	q26, q27, [x8, #32]
  405e0c:	ad40759c 	ldp	q28, q29, [x12]
  405e10:	ad0075bc 	stp	q28, q29, [x13]
  405e14:	ad417d9e 	ldp	q30, q31, [x12, #32]
  405e18:	ad017dbe 	stp	q30, q31, [x13, #32]
  405e1c:	ad400520 	ldp	q0, q1, [x9]
  405e20:	ad000540 	stp	q0, q1, [x10]
  405e24:	ad410d22 	ldp	q2, q3, [x9, #32]
  405e28:	ad010d42 	stp	q2, q3, [x10, #32]
  405e2c:	ad401704 	ldp	q4, q5, [x24]
  405e30:	ad0015e4 	stp	q4, q5, [x15]
  405e34:	ad411f06 	ldp	q6, q7, [x24, #32]
  405e38:	ad011de6 	stp	q6, q7, [x15, #32]
  405e3c:	ad404610 	ldp	q16, q17, [x16]
  405e40:	ad004450 	stp	q16, q17, [x2]
  405e44:	ad414e12 	ldp	q18, q19, [x16, #32]
  405e48:	ad014c52 	stp	q18, q19, [x2, #32]
  405e4c:	eb04023f 	cmp	x17, x4
  405e50:	54fff9e1 	b.ne	405d8c <_Z9cache_jkiILi4ELi16EEviiiiiiPfiS0_iS0_i+0x47c>  // b.any
  405e54:	8b1e00a5 	add	x5, x5, x30
  405e58:	9100416b 	add	x11, x11, #0x10
  405e5c:	910100c6 	add	x6, x6, #0x40
  405e60:	6b0b033f 	cmp	w25, w11
  405e64:	54fff10c 	b.gt	405c84 <_Z9cache_jkiILi4ELi16EEviiiiiiPfiS0_iS0_i+0x374>
  405e68:	910743e1 	add	x1, sp, #0x1d0
  405e6c:	52800020 	mov	w0, #0x1                   	// #1
  405e70:	b900abe7 	str	w7, [sp, #168]
  405e74:	97ffea6f 	bl	400830 <clock_gettime@plt>
  405e78:	a95c3bf2 	ldp	x18, x14, [sp, #448]
  405e7c:	f940effc 	ldr	x28, [sp, #472]
  405e80:	f940ebe1 	ldr	x1, [sp, #464]
  405e84:	cb0e0380 	sub	x0, x28, x14
  405e88:	b94103e8 	ldr	w8, [sp, #256]
  405e8c:	cb120023 	sub	x3, x1, x18
  405e90:	b940abf8 	ldr	w24, [sp, #168]
  405e94:	9e620014 	scvtf	d20, x0
  405e98:	7100011f 	cmp	w8, #0x0
  405e9c:	9e620076 	scvtf	d22, x3
  405ea0:	f94067e4 	ldr	x4, [sp, #200]
  405ea4:	1f485a97 	fmadd	d23, d20, d8, d22
  405ea8:	fd400095 	ldr	d21, [x4]
  405eac:	1e772ab8 	fadd	d24, d21, d23
  405eb0:	fd000098 	str	d24, [x4]
  405eb4:	54002aed 	b.le	406410 <_Z9cache_jkiILi4ELi16EEviiiiiiPfiS0_iS0_i+0xb00>
  405eb8:	f900d7f4 	str	x20, [sp, #424]
  405ebc:	9106e3f4 	add	x20, sp, #0x1b8
  405ec0:	531e76d1 	lsl	w17, w22, #2
  405ec4:	937c7ede 	sbfiz	x30, x22, #4, #32
  405ec8:	f9406bed 	ldr	x13, [sp, #208]
  405ecc:	937e7e2c 	sbfiz	x12, x17, #2, #32
  405ed0:	293f4e97 	stp	w23, w19, [x20, #-8]
  405ed4:	f940c3f3 	ldr	x19, [sp, #384]
  405ed8:	29006295 	stp	w21, w24, [x20]
  405edc:	aa0c03f5 	mov	x21, x12
  405ee0:	8b1e01b7 	add	x23, x13, x30
  405ee4:	f90077fe 	str	x30, [sp, #232]
  405ee8:	291e23f1 	stp	w17, w8, [sp, #240]
  405eec:	291f7fff 	stp	wzr, wzr, [sp, #248]
  405ef0:	b90107ff 	str	wzr, [sp, #260]
  405ef4:	f900b3f7 	str	x23, [sp, #352]
  405ef8:	b940f7e7 	ldr	w7, [sp, #244]
  405efc:	b9410be9 	ldr	w9, [sp, #264]
  405f00:	6b0900ff 	cmp	w7, w9
  405f04:	1a89d0e3 	csel	w3, w7, w9, le
  405f08:	6b0303ea 	negs	w10, w3
  405f0c:	12000478 	and	w24, w3, #0x3
  405f10:	1200054f 	and	w15, w10, #0x3
  405f14:	5a8f4710 	csneg	w16, w24, w15, mi  // mi = first
  405f18:	4b100066 	sub	w6, w3, w16
  405f1c:	710000df 	cmp	w6, #0x0
  405f20:	540022ad 	b.le	406374 <_Z9cache_jkiILi4ELi16EEviiiiiiPfiS0_iS0_i+0xa64>
  405f24:	f9408be5 	ldr	x5, [sp, #272]
  405f28:	b900b3f9 	str	w25, [sp, #176]
  405f2c:	a95373f9 	ldp	x25, x28, [sp, #304]
  405f30:	f90057fa 	str	x26, [sp, #168]
  405f34:	f940b3eb 	ldr	x11, [sp, #352]
  405f38:	2a0603fa 	mov	w26, w6
  405f3c:	b940ffe2 	ldr	w2, [sp, #252]
  405f40:	52800017 	mov	w23, #0x0                   	// #0
  405f44:	f940a3f4 	ldr	x20, [sp, #320]
  405f48:	b9016bfb 	str	w27, [sp, #360]
  405f4c:	8b22c0b8 	add	x24, x5, w2, sxtw
  405f50:	aa0b03fb 	mov	x27, x11
  405f54:	b900dbe3 	str	w3, [sp, #216]
  405f58:	910703e1 	add	x1, sp, #0x1c0
  405f5c:	52800020 	mov	w0, #0x1                   	// #1
  405f60:	97ffea34 	bl	400830 <clock_gettime@plt>
  405f64:	f94077e6 	ldr	x6, [sp, #232]
  405f68:	cb060360 	sub	x0, x27, x6
  405f6c:	710002df 	cmp	w22, #0x0
  405f70:	540008cd 	b.le	406088 <_Z9cache_jkiILi4ELi16EEviiiiiiPfiS0_iS0_i+0x778>
  405f74:	cb000364 	sub	x4, x27, x0
  405f78:	d37ef712 	lsl	x18, x24, #2
  405f7c:	d100408e 	sub	x14, x4, #0x10
  405f80:	8b120261 	add	x1, x19, x18
  405f84:	d344fdc3 	lsr	x3, x14, #4
  405f88:	91000468 	add	x8, x3, #0x1
  405f8c:	f2400511 	ands	x17, x8, #0x3
  405f90:	540003e0 	b.eq	40600c <_Z9cache_jkiILi4ELi16EEviiiiiiPfiS0_iS0_i+0x6fc>  // b.none
  405f94:	f100063f 	cmp	x17, #0x1
  405f98:	54000260 	b.eq	405fe4 <_Z9cache_jkiILi4ELi16EEviiiiiiPfiS0_iS0_i+0x6d4>  // b.none
  405f9c:	f1000a3f 	cmp	x17, #0x2
  405fa0:	54000120 	b.eq	405fc4 <_Z9cache_jkiILi4ELi16EEviiiiiiPfiS0_iS0_i+0x6b4>  // b.none
  405fa4:	bc74783a 	ldr	s26, [x1, x20, lsl #2]
  405fa8:	bc7c683b 	ldr	s27, [x1, x28]
  405fac:	bc79683c 	ldr	s28, [x1, x25]
  405fb0:	91001021 	add	x1, x1, #0x4
  405fb4:	bc726a79 	ldr	s25, [x19, x18]
  405fb8:	2d01701b 	stp	s27, s28, [x0, #8]
  405fbc:	2d006819 	stp	s25, s26, [x0]
  405fc0:	91004000 	add	x0, x0, #0x10
  405fc4:	bc74783d 	ldr	s29, [x1, x20, lsl #2]
  405fc8:	bc7c683e 	ldr	s30, [x1, x28]
  405fcc:	bc79683f 	ldr	s31, [x1, x25]
  405fd0:	91001021 	add	x1, x1, #0x4
  405fd4:	bc5fc020 	ldur	s0, [x1, #-4]
  405fd8:	2d017c1e 	stp	s30, s31, [x0, #8]
  405fdc:	2d007400 	stp	s0, s29, [x0]
  405fe0:	91004000 	add	x0, x0, #0x10
  405fe4:	bc747822 	ldr	s2, [x1, x20, lsl #2]
  405fe8:	bc7c6821 	ldr	s1, [x1, x28]
  405fec:	bc796824 	ldr	s4, [x1, x25]
  405ff0:	91001021 	add	x1, x1, #0x4
  405ff4:	bc5fc023 	ldur	s3, [x1, #-4]
  405ff8:	2d011001 	stp	s1, s4, [x0, #8]
  405ffc:	2d000803 	stp	s3, s2, [x0]
  406000:	91004000 	add	x0, x0, #0x10
  406004:	eb1b001f 	cmp	x0, x27
  406008:	54000400 	b.eq	406088 <_Z9cache_jkiILi4ELi16EEviiiiiiPfiS0_iS0_i+0x778>  // b.none
  40600c:	9100103e 	add	x30, x1, #0x4
  406010:	9100202c 	add	x12, x1, #0x8
  406014:	9100302d 	add	x13, x1, #0xc
  406018:	bc747833 	ldr	s19, [x1, x20, lsl #2]
  40601c:	2d406034 	ldp	s20, s24, [x1]
  406020:	9100c007 	add	x7, x0, #0x30
  406024:	2d416427 	ldp	s7, s25, [x1, #8]
  406028:	bc7c6835 	ldr	s21, [x1, x28]
  40602c:	bc796836 	ldr	s22, [x1, x25]
  406030:	91004021 	add	x1, x1, #0x10
  406034:	bc747bd2 	ldr	s18, [x30, x20, lsl #2]
  406038:	bc7c6bd1 	ldr	s17, [x30, x28]
  40603c:	bc796bd0 	ldr	s16, [x30, x25]
  406040:	bc747986 	ldr	s6, [x12, x20, lsl #2]
  406044:	bc7c6985 	ldr	s5, [x12, x28]
  406048:	bc796997 	ldr	s23, [x12, x25]
  40604c:	bc7479ba 	ldr	s26, [x13, x20, lsl #2]
  406050:	bc7c69bb 	ldr	s27, [x13, x28]
  406054:	bc7969bc 	ldr	s28, [x13, x25]
  406058:	2d004c14 	stp	s20, s19, [x0]
  40605c:	2d015815 	stp	s21, s22, [x0, #8]
  406060:	2d024818 	stp	s24, s18, [x0, #16]
  406064:	2d034011 	stp	s17, s16, [x0, #24]
  406068:	2d041807 	stp	s7, s6, [x0, #32]
  40606c:	2d055c05 	stp	s5, s23, [x0, #40]
  406070:	91010000 	add	x0, x0, #0x40
  406074:	bc1f0019 	stur	s25, [x0, #-16]
  406078:	2d00ecfa 	stp	s26, s27, [x7, #4]
  40607c:	bd000cfc 	str	s28, [x7, #12]
  406080:	eb1b001f 	cmp	x0, x27
  406084:	54fffc41 	b.ne	40600c <_Z9cache_jkiILi4ELi16EEviiiiiiPfiS0_iS0_i+0x6fc>  // b.any
  406088:	910743e1 	add	x1, sp, #0x1d0
  40608c:	52800020 	mov	w0, #0x1                   	// #1
  406090:	97ffe9e8 	bl	400830 <clock_gettime@plt>
  406094:	110012f7 	add	w23, w23, #0x4
  406098:	f940e7ef 	ldr	x15, [sp, #456]
  40609c:	8b15037b 	add	x27, x27, x21
  4060a0:	f940efe2 	ldr	x2, [sp, #472]
  4060a4:	f940e3eb 	ldr	x11, [sp, #448]
  4060a8:	cb0f0045 	sub	x5, x2, x15
  4060ac:	f940ebe6 	ldr	x6, [sp, #464]
  4060b0:	9e6200bd 	scvtf	d29, x5
  4060b4:	f94067e9 	ldr	x9, [sp, #200]
  4060b8:	cb0b00c4 	sub	x4, x6, x11
  4060bc:	f94073ea 	ldr	x10, [sp, #224]
  4060c0:	9e62009f 	scvtf	d31, x4
  4060c4:	1f487fa0 	fmadd	d0, d29, d8, d31
  4060c8:	fd40013e 	ldr	d30, [x9]
  4060cc:	8b0a0318 	add	x24, x24, x10
  4060d0:	1e602bc2 	fadd	d2, d30, d0
  4060d4:	fd000122 	str	d2, [x9]
  4060d8:	6b1a02ff 	cmp	w23, w26
  4060dc:	54fff3eb 	b.lt	405f58 <_Z9cache_jkiILi4ELi16EEviiiiiiPfiS0_iS0_i+0x648>  // b.tstop
  4060e0:	b940b3f9 	ldr	w25, [sp, #176]
  4060e4:	2a1a03f0 	mov	w16, w26
  4060e8:	b940fbfc 	ldr	w28, [sp, #248]
  4060ec:	52800017 	mov	w23, #0x0                   	// #0
  4060f0:	b940dbf4 	ldr	w20, [sp, #216]
  4060f4:	f94057fa 	ldr	x26, [sp, #168]
  4060f8:	b900abff 	str	wzr, [sp, #168]
  4060fc:	b9416bfb 	ldr	w27, [sp, #360]
  406100:	b900dbf0 	str	w16, [sp, #216]
  406104:	a9154ff5 	stp	x21, x19, [sp, #336]
  406108:	b9016bf4 	str	w20, [sp, #360]
  40610c:	d503201f 	nop
  406110:	7100033f 	cmp	w25, #0x0
  406114:	5400116d 	b.le	406340 <_Z9cache_jkiILi4ELi16EEviiiiiiPfiS0_iS0_i+0xa30>
  406118:	f9405ff5 	ldr	x21, [sp, #184]
  40611c:	51000732 	sub	w18, w25, #0x1
  406120:	f94063f1 	ldr	x17, [sp, #192]
  406124:	d0000148 	adrp	x8, 430000 <puts@GLIBC_2.17>
  406128:	f9406bee 	ldr	x14, [sp, #208]
  40612c:	8b3cc2b3 	add	x19, x21, w28, sxtw
  406130:	b940abe3 	ldr	w3, [sp, #168]
  406134:	d3441240 	ubfx	x0, x18, #4, #1
  406138:	8b130a33 	add	x19, x17, x19, lsl #2
  40613c:	91020118 	add	x24, x8, #0x80
  406140:	910703e1 	add	x1, sp, #0x1c0
  406144:	f9005be0 	str	x0, [sp, #176]
  406148:	8b23c9d5 	add	x21, x14, w3, sxtw #2
  40614c:	52800020 	mov	w0, #0x1                   	// #1
  406150:	97ffe9b8 	bl	400830 <clock_gettime@plt>
  406154:	52800214 	mov	w20, #0x10                  	// #16
  406158:	2a1b03e7 	mov	w7, w27
  40615c:	aa1303e6 	mov	x6, x19
  406160:	aa1a03e5 	mov	x5, x26
  406164:	aa1503e4 	mov	x4, x21
  406168:	2a1603e3 	mov	w3, w22
  40616c:	52800002 	mov	w2, #0x0                   	// #0
  406170:	52800201 	mov	w1, #0x10                  	// #16
  406174:	52800080 	mov	w0, #0x4                   	// #4
  406178:	94005906 	bl	41c590 <_Z14register_blockiiiiPKfS0_Pfi>
  40617c:	91010273 	add	x19, x19, #0x40
  406180:	910743e1 	add	x1, sp, #0x1d0
  406184:	52800020 	mov	w0, #0x1                   	// #1
  406188:	97ffe9aa 	bl	400830 <clock_gettime@plt>
  40618c:	a95c37ec 	ldp	x12, x13, [sp, #448]
  406190:	d0000141 	adrp	x1, 430000 <puts@GLIBC_2.17>
  406194:	a95d27e7 	ldp	x7, x9, [sp, #464]
  406198:	d0000142 	adrp	x2, 430000 <puts@GLIBC_2.17>
  40619c:	fd404024 	ldr	d4, [x1, #128]
  4061a0:	cb0d012f 	sub	x15, x9, x13
  4061a4:	cb0c00ea 	sub	x10, x7, x12
  4061a8:	9e6201e1 	scvtf	d1, x15
  4061ac:	9e620143 	scvtf	d3, x10
  4061b0:	1f480c33 	fmadd	d19, d1, d8, d3
  4061b4:	1e732895 	fadd	d21, d4, d19
  4061b8:	fd004055 	str	d21, [x2, #128]
  4061bc:	6b14033f 	cmp	w25, w20
  4061c0:	54000c0d 	b.le	406340 <_Z9cache_jkiILi4ELi16EEviiiiiiPfiS0_iS0_i+0xa30>
  4061c4:	b940b3fe 	ldr	w30, [sp, #176]
  4061c8:	3400041e 	cbz	w30, 406248 <_Z9cache_jkiILi4ELi16EEviiiiiiPfiS0_iS0_i+0x938>
  4061cc:	910703e1 	add	x1, sp, #0x1c0
  4061d0:	52800020 	mov	w0, #0x1                   	// #1
  4061d4:	97ffe997 	bl	400830 <clock_gettime@plt>
  4061d8:	531c6ec5 	lsl	w5, w22, #4
  4061dc:	aa1303e6 	mov	x6, x19
  4061e0:	aa1503e4 	mov	x4, x21
  4061e4:	2a1603e3 	mov	w3, w22
  4061e8:	2a1b03e7 	mov	w7, w27
  4061ec:	8b25cb45 	add	x5, x26, w5, sxtw #2
  4061f0:	52800002 	mov	w2, #0x0                   	// #0
  4061f4:	2a1403e1 	mov	w1, w20
  4061f8:	52800080 	mov	w0, #0x4                   	// #4
  4061fc:	940058e5 	bl	41c590 <_Z14register_blockiiiiPKfS0_Pfi>
  406200:	910743e1 	add	x1, sp, #0x1d0
  406204:	52800020 	mov	w0, #0x1                   	// #1
  406208:	97ffe98a 	bl	400830 <clock_gettime@plt>
  40620c:	91010273 	add	x19, x19, #0x40
  406210:	a95c1beb 	ldp	x11, x6, [sp, #448]
  406214:	d0000143 	adrp	x3, 430000 <puts@GLIBC_2.17>
  406218:	a95d4be4 	ldp	x4, x18, [sp, #464]
  40621c:	52800414 	mov	w20, #0x20                  	// #32
  406220:	fd404076 	ldr	d22, [x3, #128]
  406224:	cb060248 	sub	x8, x18, x6
  406228:	cb0b008e 	sub	x14, x4, x11
  40622c:	9e620111 	scvtf	d17, x8
  406230:	9e6201d2 	scvtf	d18, x14
  406234:	1f484a30 	fmadd	d16, d17, d8, d18
  406238:	1e702ac6 	fadd	d6, d22, d16
  40623c:	fd004066 	str	d6, [x3, #128]
  406240:	6b14033f 	cmp	w25, w20
  406244:	540007ed 	b.le	406340 <_Z9cache_jkiILi4ELi16EEviiiiiiPfiS0_iS0_i+0xa30>
  406248:	910703e1 	add	x1, sp, #0x1c0
  40624c:	52800020 	mov	w0, #0x1                   	// #1
  406250:	97ffe978 	bl	400830 <clock_gettime@plt>
  406254:	13047e80 	asr	w0, w20, #4
  406258:	aa1303e6 	mov	x6, x19
  40625c:	aa1503e4 	mov	x4, x21
  406260:	2a1603e3 	mov	w3, w22
  406264:	2a1b03e7 	mov	w7, w27
  406268:	52800002 	mov	w2, #0x0                   	// #0
  40626c:	1b167c0c 	mul	w12, w0, w22
  406270:	52800201 	mov	w1, #0x10                  	// #16
  406274:	52800080 	mov	w0, #0x4                   	// #4
  406278:	11004294 	add	w20, w20, #0x10
  40627c:	91010273 	add	x19, x19, #0x40
  406280:	531c6d8d 	lsl	w13, w12, #4
  406284:	8b2dcb45 	add	x5, x26, w13, sxtw #2
